

Microchip MPLAB XC8 Assembler V2.10 build 88905656 
                                                                                               Wed Oct 30 21:52:28 2019

Microchip MPLAB XC8 C Compiler v2.10 (Free license) build 20190730164152 Og1 
     1                           	processor	16F887
     2                           	opt	pw 120
     3                           	opt	flic
     4                           	psect	strings,global,class=STRING,delta=2
     5                           	psect	cinit,global,class=CODE,merge=1,delta=2
     6                           	psect	bssBANK1,global,class=BANK1,space=1,delta=1
     7                           	psect	clrtext,global,class=CODE,delta=2
     8                           	psect	cstackBANK1,global,class=BANK1,space=1,delta=1
     9                           	psect	cstackCOMMON,global,class=COMMON,space=1,delta=1
    10                           	psect	cstackBANK0,global,class=BANK0,space=1,delta=1
    11                           	psect	maintext,global,class=CODE,split=1,delta=2
    12                           	psect	text1,local,class=CODE,merge=1,delta=2
    13                           	psect	text2,local,class=CODE,merge=1,delta=2
    14                           	psect	text3,local,class=CODE,merge=1,delta=2
    15                           	psect	text4,local,class=CODE,merge=1,delta=2
    16                           	psect	text5,local,class=CODE,merge=1,delta=2,group=1
    17                           	psect	text6,local,class=CODE,merge=1,delta=2,group=1
    18                           	psect	text7,local,class=CODE,merge=1,delta=2
    19                           	psect	text8,local,class=CODE,merge=1,delta=2,group=1
    20                           	psect	text9,local,class=CODE,merge=1,delta=2,group=1
    21                           	psect	text10,local,class=CODE,merge=1,delta=2,group=1
    22                           	psect	text11,local,class=CODE,merge=1,delta=2,group=1
    23                           	psect	text12,local,class=CODE,merge=1,delta=2,group=1
    24                           	psect	text13,local,class=CODE,merge=1,delta=2,group=1
    25                           	psect	text14,local,class=CODE,merge=1,delta=2,group=1
    26                           	psect	text15,local,class=CODE,merge=1,delta=2,group=1
    27                           	psect	text16,local,class=CODE,merge=1,delta=2,group=1
    28                           	psect	text17,local,class=CODE,merge=1,delta=2,group=1
    29                           	psect	text18,local,class=CODE,merge=1,delta=2,group=1
    30                           	psect	text19,local,class=CODE,merge=1,delta=2,group=1
    31                           	psect	text20,local,class=CODE,merge=1,delta=2,group=1
    32                           	psect	text21,local,class=CODE,merge=1,delta=2,group=1
    33                           	psect	text22,local,class=CODE,merge=1,delta=2,group=1
    34                           	psect	text23,local,class=CODE,merge=1,delta=2,group=1
    35                           	psect	text24,local,class=CODE,merge=1,delta=2,group=1
    36                           	psect	text25,local,class=CODE,merge=1,delta=2
    37                           	psect	text26,local,class=CODE,merge=1,delta=2
    38                           	psect	text27,local,class=CODE,merge=1,delta=2
    39                           	psect	text28,local,class=CODE,merge=1,delta=2
    40                           	psect	text29,local,class=CODE,merge=1,delta=2
    41                           	psect	text30,local,class=CODE,merge=1,delta=2
    42                           	psect	text31,local,class=CODE,merge=1,delta=2
    43                           	dabs	1,0x7E,2
    44  0000                     
    45                           ; Version 2.10
    46                           ; Generated 31/07/2019 GMT
    47                           ; 
    48                           ; Copyright © 2019, Microchip Technology Inc. and its subsidiaries ("Microchip")
    49                           ; All rights reserved.
    50                           ; 
    51                           ; This software is developed by Microchip Technology Inc. and its subsidiaries ("Microch
      +                          ip").
    52                           ; 
    53                           ; Redistribution and use in source and binary forms, with or without modification, are
    54                           ; permitted provided that the following conditions are met:
    55                           ; 
    56                           ;     1. Redistributions of source code must retain the above copyright notice, this lis
      +                          t of
    57                           ;        conditions and the following disclaimer.
    58                           ; 
    59                           ;     2. Redistributions in binary form must reproduce the above copyright notice, this 
      +                          list
    60                           ;        of conditions and the following disclaimer in the documentation and/or other
    61                           ;        materials provided with the distribution.
    62                           ; 
    63                           ;     3. Microchip's name may not be used to endorse or promote products derived from th
      +                          is
    64                           ;        software without specific prior written permission.
    65                           ; 
    66                           ; THIS SOFTWARE IS PROVIDED BY MICROCHIP "AS IS" AND ANY EXPRESS OR IMPLIED WARRANTIES,
    67                           ; INCLUDING, BUT NOT LIMITED TO, THE IMPLIED WARRANTIES OF MERCHANTABILITY AND FITNESS F
      +                          OR
    68                           ; PURPOSE ARE DISCLAIMED.  IN NO EVENT SHALL MICROCHIP BE LIABLE FOR ANY DIRECT, INDIREC
      +                          T,
    69                           ; INCIDENTAL, SPECIAL, EXEMPLARY, OR CONSEQUENTIAL DAMAGES (INCLUDING BUT NOT LIMITED TO
    70                           ; PROCUREMENT OF SUBSTITUTE GOODS OR SERVICES; LOSS OF USE, DATA OR PROFITS; OR BUSINESS
    71                           ; INTERRUPTION) HOWSOEVER CAUSED AND ON ANY THEORY OF LIABILITY, WHETHER IN CONTRACT, ST
      +                          RICT
    72                           ; LIABILITY, OR TORT (INCLUDING NEGLIGENCE OR OTHERWISE) ARISING IN ANY WAY OUT OF THE U
      +                          SE OF
    73                           ; THIS SOFTWARE, EVEN IF ADVISED OF THE POSSIBILITY OF SUCH DAMAGE.
    74                           ; 
    75                           ; 
    76                           ; Code-generator required, PIC16F887 Definitions
    77                           ; 
    78                           ; SFR Addresses
    79  0000                     	;# 
    80  0001                     	;# 
    81  0002                     	;# 
    82  0003                     	;# 
    83  0004                     	;# 
    84  0005                     	;# 
    85  0006                     	;# 
    86  0007                     	;# 
    87  0008                     	;# 
    88  0009                     	;# 
    89  000A                     	;# 
    90  000B                     	;# 
    91  000C                     	;# 
    92  000D                     	;# 
    93  000E                     	;# 
    94  000E                     	;# 
    95  000F                     	;# 
    96  0010                     	;# 
    97  0011                     	;# 
    98  0012                     	;# 
    99  0013                     	;# 
   100  0014                     	;# 
   101  0015                     	;# 
   102  0015                     	;# 
   103  0016                     	;# 
   104  0017                     	;# 
   105  0018                     	;# 
   106  0019                     	;# 
   107  001A                     	;# 
   108  001B                     	;# 
   109  001B                     	;# 
   110  001C                     	;# 
   111  001D                     	;# 
   112  001E                     	;# 
   113  001F                     	;# 
   114  0081                     	;# 
   115  0085                     	;# 
   116  0086                     	;# 
   117  0087                     	;# 
   118  0088                     	;# 
   119  0089                     	;# 
   120  008C                     	;# 
   121  008D                     	;# 
   122  008E                     	;# 
   123  008F                     	;# 
   124  0090                     	;# 
   125  0091                     	;# 
   126  0092                     	;# 
   127  0093                     	;# 
   128  0093                     	;# 
   129  0093                     	;# 
   130  0094                     	;# 
   131  0095                     	;# 
   132  0096                     	;# 
   133  0097                     	;# 
   134  0098                     	;# 
   135  0099                     	;# 
   136  009A                     	;# 
   137  009B                     	;# 
   138  009C                     	;# 
   139  009D                     	;# 
   140  009E                     	;# 
   141  009F                     	;# 
   142  0105                     	;# 
   143  0107                     	;# 
   144  0108                     	;# 
   145  0109                     	;# 
   146  010C                     	;# 
   147  010C                     	;# 
   148  010D                     	;# 
   149  010E                     	;# 
   150  010F                     	;# 
   151  0185                     	;# 
   152  0187                     	;# 
   153  0188                     	;# 
   154  0189                     	;# 
   155  018C                     	;# 
   156  018D                     	;# 
   157  0000                     	;# 
   158  0001                     	;# 
   159  0002                     	;# 
   160  0003                     	;# 
   161  0004                     	;# 
   162  0005                     	;# 
   163  0006                     	;# 
   164  0007                     	;# 
   165  0008                     	;# 
   166  0009                     	;# 
   167  000A                     	;# 
   168  000B                     	;# 
   169  000C                     	;# 
   170  000D                     	;# 
   171  000E                     	;# 
   172  000E                     	;# 
   173  000F                     	;# 
   174  0010                     	;# 
   175  0011                     	;# 
   176  0012                     	;# 
   177  0013                     	;# 
   178  0014                     	;# 
   179  0015                     	;# 
   180  0015                     	;# 
   181  0016                     	;# 
   182  0017                     	;# 
   183  0018                     	;# 
   184  0019                     	;# 
   185  001A                     	;# 
   186  001B                     	;# 
   187  001B                     	;# 
   188  001C                     	;# 
   189  001D                     	;# 
   190  001E                     	;# 
   191  001F                     	;# 
   192  0081                     	;# 
   193  0085                     	;# 
   194  0086                     	;# 
   195  0087                     	;# 
   196  0088                     	;# 
   197  0089                     	;# 
   198  008C                     	;# 
   199  008D                     	;# 
   200  008E                     	;# 
   201  008F                     	;# 
   202  0090                     	;# 
   203  0091                     	;# 
   204  0092                     	;# 
   205  0093                     	;# 
   206  0093                     	;# 
   207  0093                     	;# 
   208  0094                     	;# 
   209  0095                     	;# 
   210  0096                     	;# 
   211  0097                     	;# 
   212  0098                     	;# 
   213  0099                     	;# 
   214  009A                     	;# 
   215  009B                     	;# 
   216  009C                     	;# 
   217  009D                     	;# 
   218  009E                     	;# 
   219  009F                     	;# 
   220  0105                     	;# 
   221  0107                     	;# 
   222  0108                     	;# 
   223  0109                     	;# 
   224  010C                     	;# 
   225  010C                     	;# 
   226  010D                     	;# 
   227  010E                     	;# 
   228  010F                     	;# 
   229  0185                     	;# 
   230  0187                     	;# 
   231  0188                     	;# 
   232  0189                     	;# 
   233  018C                     	;# 
   234  018D                     	;# 
   235                           
   236                           	psect	strings
   237  1000                     __pstrings:	
   238  1000                     stringtab:	
   239  1000                     __stringtab:	
   240                           
   241                           ;	String table - string pointers are 1 byte each
   242  1000  1BFF               	btfsc	btemp+1,7
   243  1001  280A               	ljmp	stringcode
   244  1002  1383               	bcf	3,7
   245  1003  187F               	btfsc	btemp+1,0
   246  1004  1783               	bsf	3,7
   247  1005  0800               	movf	0,w
   248  1006  0A84               	incf	4,f
   249  1007  1903               	skipnz
   250  1008  0AFF               	incf	btemp+1,f
   251  1009  0008               	return
   252  100A                     stringcode:	
   253  100A                     stringdir:	
   254  100A  3010               	movlw	high stringdir
   255  100B  008A               	movwf	10
   256  100C  0804               	movf	4,w
   257  100D  0A84               	incf	4,f
   258  100E  0782               	addwf	2,f
   259  100F                     __stringbase:	
   260  100F  3400               	retlw	0
   261  1010                     __end_of__stringtab:	
   262  1010                     __powers_:	
   263  1010  3400               	retlw	0
   264  1011  3400               	retlw	0
   265  1012  3480               	retlw	128
   266  1013  343F               	retlw	63
   267  1014  3400               	retlw	0
   268  1015  3400               	retlw	0
   269  1016  3420               	retlw	32
   270  1017  3441               	retlw	65
   271  1018  3400               	retlw	0
   272  1019  3400               	retlw	0
   273  101A  34C8               	retlw	200
   274  101B  3442               	retlw	66
   275  101C  3400               	retlw	0
   276  101D  3400               	retlw	0
   277  101E  347A               	retlw	122
   278  101F  3444               	retlw	68
   279  1020  3400               	retlw	0
   280  1021  3440               	retlw	64
   281  1022  341C               	retlw	28
   282  1023  3446               	retlw	70
   283  1024  3400               	retlw	0
   284  1025  3450               	retlw	80
   285  1026  34C3               	retlw	195
   286  1027  3447               	retlw	71
   287  1028  3400               	retlw	0
   288  1029  3424               	retlw	36
   289  102A  3474               	retlw	116
   290  102B  3449               	retlw	73
   291  102C  3480               	retlw	128
   292  102D  3496               	retlw	150
   293  102E  3418               	retlw	24
   294  102F  344B               	retlw	75
   295  1030  3420               	retlw	32
   296  1031  34BC               	retlw	188
   297  1032  34BE               	retlw	190
   298  1033  344C               	retlw	76
   299  1034  3428               	retlw	40
   300  1035  346B               	retlw	107
   301  1036  346E               	retlw	110
   302  1037  344E               	retlw	78
   303  1038  34F9               	retlw	249
   304  1039  3402               	retlw	2
   305  103A  3415               	retlw	21
   306  103B  3450               	retlw	80
   307  103C  34EC               	retlw	236
   308  103D  3478               	retlw	120
   309  103E  34AD               	retlw	173
   310  103F  3460               	retlw	96
   311  1040  34CA               	retlw	202
   312  1041  34F2               	retlw	242
   313  1042  3449               	retlw	73
   314  1043  3471               	retlw	113
   315  1044                     __end_of__powers_:	
   316  1044                     __npowers_:	
   317  1044  3400               	retlw	0
   318  1045  3400               	retlw	0
   319  1046  3480               	retlw	128
   320  1047  343F               	retlw	63
   321  1048  34CD               	retlw	205
   322  1049  34CC               	retlw	204
   323  104A  34CC               	retlw	204
   324  104B  343D               	retlw	61
   325  104C  340A               	retlw	10
   326  104D  34D7               	retlw	215
   327  104E  3423               	retlw	35
   328  104F  343C               	retlw	60
   329  1050  346F               	retlw	111
   330  1051  3412               	retlw	18
   331  1052  3483               	retlw	131
   332  1053  343A               	retlw	58
   333  1054  3417               	retlw	23
   334  1055  34B7               	retlw	183
   335  1056  34D1               	retlw	209
   336  1057  3438               	retlw	56
   337  1058  34AC               	retlw	172
   338  1059  34C5               	retlw	197
   339  105A  3427               	retlw	39
   340  105B  3437               	retlw	55
   341  105C  34BD               	retlw	189
   342  105D  3437               	retlw	55
   343  105E  3486               	retlw	134
   344  105F  3435               	retlw	53
   345  1060  3495               	retlw	149
   346  1061  34BF               	retlw	191
   347  1062  34D6               	retlw	214
   348  1063  3433               	retlw	51
   349  1064  3477               	retlw	119
   350  1065  34CC               	retlw	204
   351  1066  342B               	retlw	43
   352  1067  3432               	retlw	50
   353  1068  345F               	retlw	95
   354  1069  3470               	retlw	112
   355  106A  3489               	retlw	137
   356  106B  3430               	retlw	48
   357  106C  34FF               	retlw	255
   358  106D  34E6               	retlw	230
   359  106E  34DB               	retlw	219
   360  106F  342E               	retlw	46
   361  1070  3408               	retlw	8
   362  1071  34E5               	retlw	229
   363  1072  343C               	retlw	60
   364  1073  341E               	retlw	30
   365  1074  3460               	retlw	96
   366  1075  3442               	retlw	66
   367  1076  34A2               	retlw	162
   368  1077  340D               	retlw	13
   369  1078                     __end_of__npowers_:	
   370  1078                     _dpowers:	
   371  1078  3401               	retlw	1
   372  1079  3400               	retlw	0
   373  107A  3400               	retlw	0
   374  107B  3400               	retlw	0
   375  107C  340A               	retlw	10
   376  107D  3400               	retlw	0
   377  107E  3400               	retlw	0
   378  107F  3400               	retlw	0
   379  1080  3464               	retlw	100
   380  1081  3400               	retlw	0
   381  1082  3400               	retlw	0
   382  1083  3400               	retlw	0
   383  1084  34E8               	retlw	232
   384  1085  3403               	retlw	3
   385  1086  3400               	retlw	0
   386  1087  3400               	retlw	0
   387  1088  3410               	retlw	16
   388  1089  3427               	retlw	39
   389  108A  3400               	retlw	0
   390  108B  3400               	retlw	0
   391  108C  34A0               	retlw	160
   392  108D  3486               	retlw	134
   393  108E  3401               	retlw	1
   394  108F  3400               	retlw	0
   395  1090  3440               	retlw	64
   396  1091  3442               	retlw	66
   397  1092  340F               	retlw	15
   398  1093  3400               	retlw	0
   399  1094  3480               	retlw	128
   400  1095  3496               	retlw	150
   401  1096  3498               	retlw	152
   402  1097  3400               	retlw	0
   403  1098  3400               	retlw	0
   404  1099  34E1               	retlw	225
   405  109A  34F5               	retlw	245
   406  109B  3405               	retlw	5
   407  109C  3400               	retlw	0
   408  109D  34CA               	retlw	202
   409  109E  349A               	retlw	154
   410  109F  343B               	retlw	59
   411  10A0                     __end_of_dpowers:	
   412  001E                     _ADRESH	set	30
   413  001F                     _ADCON0	set	31
   414  00F9                     _GO_nDONE	set	249
   415  0043                     _RD3	set	67
   416  0042                     _RD2	set	66
   417  0047                     _RD7	set	71
   418  0046                     _RD6	set	70
   419  0045                     _RD5	set	69
   420  0044                     _RD4	set	68
   421  009E                     _ADRESL	set	158
   422  009F                     _ADCON1	set	159
   423  0085                     _TRISA	set	133
   424  0088                     _TRISD	set	136
   425  0188                     _ANSEL	set	392
   426  10A0                     STR_2:	
   427  10A0  3454               	retlw	84	;'T'
   428  10A1  3465               	retlw	101	;'e'
   429  10A2  346D               	retlw	109	;'m'
   430  10A3  3470               	retlw	112	;'p'
   431  10A4  342E               	retlw	46	;'.'
   432  10A5  3420               	retlw	32	;' '
   433  10A6  3461               	retlw	97	;'a'
   434  10A7  3463               	retlw	99	;'c'
   435  10A8  3474               	retlw	116	;'t'
   436  10A9  3475               	retlw	117	;'u'
   437  10AA  3461               	retlw	97	;'a'
   438  10AB  346C               	retlw	108	;'l'
   439  10AC  3400               	retlw	0
   440  10AD                     STR_1:	
   441  10AD  3425               	retlw	37	;'%'
   442  10AE  3466               	retlw	102	;'f'
   443  10AF  3420               	retlw	32	;' '
   444  10B0  3443               	retlw	67	;'C'
   445  10B1  3400               	retlw	0
   446                           
   447                           ; #config settings
   448  0000                     
   449                           	psect	cinit
   450  07F3                     start_initialization:	
   451  07F3                     __initialization:	
   452                           
   453                           ; Clear objects allocated to BANK1
   454  07F3  1383               	bcf	3,7	;select IRP bank0
   455  07F4  30C6               	movlw	low __pbssBANK1
   456  07F5  0084               	movwf	4
   457  07F6  30E0               	movlw	low (__pbssBANK1+26)
   458  07F7  160A  158A  2391  120A  118A  	fcall	clear_ram0
   459  07FC                     end_of_initialization:	
   460                           ;End of C runtime variable initialization code
   461                           
   462  07FC                     __end_of__initialization:	
   463  07FC  0183               	clrf	3
   464  07FD  160A  158A  2BBE   	ljmp	_main	;jump to C main() function
   465                           
   466                           	psect	bssBANK1
   467  00C6                     __pbssBANK1:	
   468  00C6                     _scaled_temperature:	
   469  00C6                     	ds	4
   470  00CA                     _scaled_float_data:	
   471  00CA                     	ds	4
   472  00CE                     _int_data:	
   473  00CE                     	ds	2
   474  00D0                     _char_data:	
   475  00D0                     	ds	16
   476                           
   477                           	psect	clrtext
   478  1B91                     clear_ram0:	
   479                           ;	Called with FSR containing the base address, and
   480                           ;	W with the last address+1
   481                           
   482  1B91  0064               	clrwdt	;clear the watchdog before getting into this loop
   483  1B92                     clrloop0:	
   484  1B92  0180               	clrf	0	;clear RAM location pointed to by FSR
   485  1B93  0A84               	incf	4,f	;increment pointer
   486  1B94  0604               	xorwf	4,w	;XOR with final address
   487  1B95  1903               	btfsc	3,2	;have we reached the end yet?
   488  1B96  3400               	retlw	0	;all done for this memory range, return
   489  1B97  0604               	xorwf	4,w	;XOR again to restore value
   490  1B98  2B92               	goto	clrloop0	;do the next byte
   491                           
   492                           	psect	cstackBANK1
   493  00A0                     __pcstackBANK1:	
   494  00A0                     ?_sprintf:	
   495  00A0                     sprintf@f:	
   496                           ; 2 bytes @ 0x0
   497                           
   498                           
   499                           ; 1 bytes @ 0x0
   500  00A0                     	ds	5
   501  00A5                     ??_sprintf:	
   502                           
   503                           ; 1 bytes @ 0x5
   504  00A5                     	ds	5
   505  00AA                     _sprintf$780:	
   506                           
   507                           ; 4 bytes @ 0xA
   508  00AA                     	ds	4
   509  00AE                     sprintf@ap:	
   510                           
   511                           ; 1 bytes @ 0xE
   512  00AE                     	ds	1
   513  00AF                     sprintf@flag:	
   514                           
   515                           ; 2 bytes @ 0xF
   516  00AF                     	ds	2
   517  00B1                     sprintf@prec:	
   518                           
   519                           ; 2 bytes @ 0x11
   520  00B1                     	ds	2
   521  00B3                     sprintf@val:	
   522                           
   523                           ; 4 bytes @ 0x13
   524  00B3                     	ds	4
   525  00B7                     sprintf@eexp:	
   526                           
   527                           ; 2 bytes @ 0x17
   528  00B7                     	ds	2
   529  00B9                     sprintf@tmpval:	
   530                           
   531                           ; 4 bytes @ 0x19
   532  00B9                     	ds	4
   533  00BD                     sprintf@sp:	
   534                           
   535                           ; 1 bytes @ 0x1D
   536  00BD                     	ds	1
   537  00BE                     sprintf@fval:	
   538                           
   539                           ; 4 bytes @ 0x1E
   540  00BE                     	ds	4
   541  00C2                     sprintf@c:	
   542                           
   543                           ; 1 bytes @ 0x22
   544  00C2                     	ds	1
   545  00C3                     ??_ADC_Read:	
   546                           
   547                           ; 1 bytes @ 0x23
   548  00C3                     	ds	3
   549                           
   550                           	psect	cstackCOMMON
   551  0070                     __pcstackCOMMON:	
   552  0070                     ?___fleq:	
   553  0070                     ?___flge:	
   554                           ; 1 bit 
   555                           
   556  0070                     ?_ADC_Init:	
   557                           ; 1 bit 
   558                           
   559  0070                     ??_ADC_Init:	
   560                           ; 1 bytes @ 0x0
   561                           
   562  0070                     ?_ADC_Read:	
   563                           ; 1 bytes @ 0x0
   564                           
   565  0070                     ?_Lcd_SetBit:	
   566                           ; 1 bytes @ 0x0
   567                           
   568  0070                     ??_Lcd_SetBit:	
   569                           ; 1 bytes @ 0x0
   570                           
   571  0070                     ?_Lcd_Cmd:	
   572                           ; 1 bytes @ 0x0
   573                           
   574  0070                     ?_Lcd_Clear:	
   575                           ; 1 bytes @ 0x0
   576                           
   577  0070                     ?_Lcd_Start:	
   578                           ; 1 bytes @ 0x0
   579                           
   580  0070                     ?_Lcd_Print_Char:	
   581                           ; 1 bytes @ 0x0
   582                           
   583  0070                     ?_main:	
   584                           ; 1 bytes @ 0x0
   585                           
   586  0070                     ?__Umul8_16:	
   587                           ; 1 bytes @ 0x0
   588                           
   589  0070                     ?___wmul:	
   590                           ; 2 bytes @ 0x0
   591                           
   592  0070                     ?___awmod:	
   593                           ; 2 bytes @ 0x0
   594                           
   595  0070                     ?___lwmod:	
   596                           ; 2 bytes @ 0x0
   597                           
   598  0070                     ?__tdiv_to_l_:	
   599                           ; 2 bytes @ 0x0
   600                           
   601  0070                     ?__div_to_l_:	
   602                           ; 4 bytes @ 0x0
   603                           
   604  0070                     ?___lldiv:	
   605                           ; 4 bytes @ 0x0
   606                           
   607  0070                     ?___flneg:	
   608                           ; 4 bytes @ 0x0
   609                           
   610  0070                     ?___llmod:	
   611                           ; 4 bytes @ 0x0
   612                           
   613  0070                     Lcd_SetBit@data_bit:	
   614                           ; 4 bytes @ 0x0
   615                           
   616  0070                     __Umul8_16@multiplicand:	
   617                           ; 1 bytes @ 0x0
   618                           
   619  0070                     ___wmul@multiplier:	
   620                           ; 1 bytes @ 0x0
   621                           
   622  0070                     ___awmod@divisor:	
   623                           ; 2 bytes @ 0x0
   624                           
   625  0070                     ___lwmod@divisor:	
   626                           ; 2 bytes @ 0x0
   627                           
   628  0070                     ___lldiv@divisor:	
   629                           ; 2 bytes @ 0x0
   630                           
   631  0070                     __div_to_l_@f1:	
   632                           ; 4 bytes @ 0x0
   633                           
   634  0070                     ___fleq@ff1:	
   635                           ; 4 bytes @ 0x0
   636                           
   637  0070                     ___flge@ff1:	
   638                           ; 4 bytes @ 0x0
   639                           
   640  0070                     ___flneg@f1:	
   641                           ; 4 bytes @ 0x0
   642                           
   643  0070                     __tdiv_to_l_@f1:	
   644                           ; 4 bytes @ 0x0
   645                           
   646  0070                     ___llmod@divisor:	
   647                           ; 4 bytes @ 0x0
   648                           
   649                           
   650                           ; 4 bytes @ 0x0
   651  0070                     	ds	1
   652  0071                     ??_Lcd_Cmd:	
   653  0071                     ??_Lcd_Print_Char:	
   654                           ; 1 bytes @ 0x1
   655                           
   656                           
   657                           ; 1 bytes @ 0x1
   658  0071                     	ds	1
   659  0072                     ??__Umul8_16:	
   660  0072                     Lcd_Print_Char@Lower_Nibble:	
   661                           ; 1 bytes @ 0x2
   662                           
   663  0072                     ___wmul@multiplicand:	
   664                           ; 1 bytes @ 0x2
   665                           
   666  0072                     ___awmod@dividend:	
   667                           ; 2 bytes @ 0x2
   668                           
   669  0072                     ___lwmod@dividend:	
   670                           ; 2 bytes @ 0x2
   671                           
   672                           
   673                           ; 2 bytes @ 0x2
   674  0072                     	ds	1
   675  0073                     Lcd_Cmd@a:	
   676  0073                     Lcd_Print_Char@Upper_Nibble:	
   677                           ; 1 bytes @ 0x3
   678                           
   679                           
   680                           ; 1 bytes @ 0x3
   681  0073                     	ds	1
   682  0074                     ??_Lcd_Clear:	
   683  0074                     ?_Lcd_Set_Cursor:	
   684                           ; 1 bytes @ 0x4
   685                           
   686  0074                     ??_Lcd_Start:	
   687                           ; 1 bytes @ 0x4
   688                           
   689  0074                     ??___wmul:	
   690                           ; 1 bytes @ 0x4
   691                           
   692  0074                     ??___awmod:	
   693                           ; 1 bytes @ 0x4
   694                           
   695  0074                     ??___flneg:	
   696                           ; 1 bytes @ 0x4
   697                           
   698  0074                     ??___lwmod:	
   699                           ; 1 bytes @ 0x4
   700                           
   701  0074                     Lcd_Set_Cursor@column:	
   702                           ; 1 bytes @ 0x4
   703                           
   704  0074                     Lcd_Print_Char@data:	
   705                           ; 1 bytes @ 0x4
   706                           
   707  0074                     ___wmul@product:	
   708                           ; 1 bytes @ 0x4
   709                           
   710  0074                     __Umul8_16@product:	
   711                           ; 2 bytes @ 0x4
   712                           
   713  0074                     ___lldiv@dividend:	
   714                           ; 2 bytes @ 0x4
   715                           
   716  0074                     __div_to_l_@f2:	
   717                           ; 4 bytes @ 0x4
   718                           
   719  0074                     ___fleq@ff2:	
   720                           ; 4 bytes @ 0x4
   721                           
   722  0074                     ___flge@ff2:	
   723                           ; 4 bytes @ 0x4
   724                           
   725  0074                     __tdiv_to_l_@f2:	
   726                           ; 4 bytes @ 0x4
   727                           
   728  0074                     ___llmod@dividend:	
   729                           ; 4 bytes @ 0x4
   730                           
   731                           
   732                           ; 4 bytes @ 0x4
   733  0074                     	ds	1
   734  0075                     ??_Lcd_Set_Cursor:	
   735  0075                     ?_Lcd_Print_String:	
   736                           ; 1 bytes @ 0x5
   737                           
   738  0075                     ___awmod@counter:	
   739                           ; 1 bytes @ 0x5
   740                           
   741  0075                     ___lwmod@counter:	
   742                           ; 1 bytes @ 0x5
   743                           
   744  0075                     Lcd_Print_String@a:	
   745                           ; 1 bytes @ 0x5
   746                           
   747                           
   748                           ; 2 bytes @ 0x5
   749  0075                     	ds	1
   750  0076                     ?___lwdiv:	
   751  0076                     ?___xxtofl:	
   752                           ; 2 bytes @ 0x6
   753                           
   754  0076                     ___awmod@sign:	
   755                           ; 4 bytes @ 0x6
   756                           
   757  0076                     ___lwdiv@divisor:	
   758                           ; 1 bytes @ 0x6
   759                           
   760  0076                     __Umul8_16@word_mpld:	
   761                           ; 2 bytes @ 0x6
   762                           
   763  0076                     ___xxtofl@val:	
   764                           ; 2 bytes @ 0x6
   765                           
   766                           
   767                           ; 4 bytes @ 0x6
   768  0076                     	ds	1
   769  0077                     ??_Lcd_Print_String:	
   770  0077                     ?___awdiv:	
   771                           ; 1 bytes @ 0x7
   772                           
   773  0077                     Lcd_Set_Cursor@row:	
   774                           ; 2 bytes @ 0x7
   775                           
   776  0077                     ___awdiv@divisor:	
   777                           ; 1 bytes @ 0x7
   778                           
   779                           
   780                           ; 2 bytes @ 0x7
   781  0077                     	ds	1
   782  0078                     ??__tdiv_to_l_:	
   783  0078                     ??__div_to_l_:	
   784                           ; 1 bytes @ 0x8
   785                           
   786  0078                     ??___lldiv:	
   787                           ; 1 bytes @ 0x8
   788                           
   789  0078                     ??___fleq:	
   790                           ; 1 bytes @ 0x8
   791                           
   792  0078                     ??___flge:	
   793                           ; 1 bytes @ 0x8
   794                           
   795  0078                     ??___llmod:	
   796                           ; 1 bytes @ 0x8
   797                           
   798  0078                     Lcd_Set_Cursor@z:	
   799                           ; 1 bytes @ 0x8
   800                           
   801  0078                     __Umul8_16@multiplier:	
   802                           ; 1 bytes @ 0x8
   803                           
   804  0078                     ___lwdiv@dividend:	
   805                           ; 1 bytes @ 0x8
   806                           
   807                           
   808                           ; 2 bytes @ 0x8
   809  0078                     	ds	1
   810  0079                     Lcd_Set_Cursor@y:	
   811  0079                     ___llmod@counter:	
   812                           ; 1 bytes @ 0x9
   813                           
   814  0079                     ___awdiv@dividend:	
   815                           ; 1 bytes @ 0x9
   816                           
   817  0079                     ___lldiv@quotient:	
   818                           ; 2 bytes @ 0x9
   819                           
   820                           
   821                           ; 4 bytes @ 0x9
   822  0079                     	ds	1
   823  007A                     ??___lwdiv:	
   824  007A                     ??___xxtofl:	
   825                           ; 1 bytes @ 0xA
   826                           
   827  007A                     Lcd_Set_Cursor@temp:	
   828                           ; 1 bytes @ 0xA
   829                           
   830  007A                     Lcd_Print_String@i:	
   831                           ; 1 bytes @ 0xA
   832                           
   833                           
   834                           ; 2 bytes @ 0xA
   835  007A                     	ds	1
   836  007B                     ??___awdiv:	
   837  007B                     ___lwdiv@quotient:	
   838                           ; 1 bytes @ 0xB
   839                           
   840                           
   841                           ; 2 bytes @ 0xB
   842  007B                     	ds	2
   843  007D                     ___lldiv@counter:	
   844  007D                     ___lwdiv@counter:	
   845                           ; 1 bytes @ 0xD
   846                           
   847                           
   848                           ; 1 bytes @ 0xD
   849  007D                     	ds	1
   850  007E                     ??_main:	
   851  007E                     ??___flsub:	
   852                           ; 1 bytes @ 0xE
   853                           
   854                           
   855                           	psect	cstackBANK0
   856  0020                     __pcstackBANK0:	
   857                           ; 1 bytes @ 0xE
   858                           
   859  0020                     ___awdiv@counter:	
   860  0020                     ___xxtofl@sign:	
   861                           ; 1 bytes @ 0x0
   862                           
   863  0020                     __div_to_l_@quot:	
   864                           ; 1 bytes @ 0x0
   865                           
   866  0020                     __tdiv_to_l_@quot:	
   867                           ; 4 bytes @ 0x0
   868                           
   869                           
   870                           ; 4 bytes @ 0x0
   871  0020                     	ds	1
   872  0021                     ___awdiv@sign:	
   873  0021                     ___xxtofl@exp:	
   874                           ; 1 bytes @ 0x1
   875                           
   876                           
   877                           ; 1 bytes @ 0x1
   878  0021                     	ds	1
   879  0022                     ___awdiv@quotient:	
   880  0022                     ___xxtofl@arg:	
   881                           ; 2 bytes @ 0x2
   882                           
   883                           
   884                           ; 4 bytes @ 0x2
   885  0022                     	ds	2
   886  0024                     ?___flmul:	
   887  0024                     __div_to_l_@cntr:	
   888                           ; 4 bytes @ 0x4
   889                           
   890  0024                     __tdiv_to_l_@cntr:	
   891                           ; 1 bytes @ 0x4
   892                           
   893  0024                     ___flmul@b:	
   894                           ; 1 bytes @ 0x4
   895                           
   896                           
   897                           ; 4 bytes @ 0x4
   898  0024                     	ds	1
   899  0025                     __div_to_l_@exp1:	
   900  0025                     __tdiv_to_l_@exp1:	
   901                           ; 1 bytes @ 0x5
   902                           
   903                           
   904                           ; 1 bytes @ 0x5
   905  0025                     	ds	1
   906  0026                     ?___fldiv:	
   907  0026                     ___fldiv@a:	
   908                           ; 4 bytes @ 0x6
   909                           
   910                           
   911                           ; 4 bytes @ 0x6
   912  0026                     	ds	2
   913  0028                     ___flmul@a:	
   914                           
   915                           ; 4 bytes @ 0x8
   916  0028                     	ds	2
   917  002A                     ___fldiv@b:	
   918                           
   919                           ; 4 bytes @ 0xA
   920  002A                     	ds	2
   921  002C                     ??___flmul:	
   922                           
   923                           ; 1 bytes @ 0xC
   924  002C                     	ds	2
   925  002E                     ??___fldiv:	
   926                           
   927                           ; 1 bytes @ 0xE
   928  002E                     	ds	3
   929  0031                     ___flmul@sign:	
   930                           
   931                           ; 1 bytes @ 0x11
   932  0031                     	ds	1
   933  0032                     ___flmul@grs:	
   934                           
   935                           ; 4 bytes @ 0x12
   936  0032                     	ds	1
   937  0033                     ___fldiv@rem:	
   938                           
   939                           ; 4 bytes @ 0x13
   940  0033                     	ds	3
   941  0036                     ___flmul@aexp:	
   942                           
   943                           ; 1 bytes @ 0x16
   944  0036                     	ds	1
   945  0037                     ___fldiv@sign:	
   946  0037                     ___flmul@bexp:	
   947                           ; 1 bytes @ 0x17
   948                           
   949                           
   950                           ; 1 bytes @ 0x17
   951  0037                     	ds	1
   952  0038                     ___fldiv@new_exp:	
   953  0038                     ___flmul@prod:	
   954                           ; 2 bytes @ 0x18
   955                           
   956                           
   957                           ; 4 bytes @ 0x18
   958  0038                     	ds	2
   959  003A                     ___fldiv@grs:	
   960                           
   961                           ; 4 bytes @ 0x1A
   962  003A                     	ds	2
   963  003C                     ___flmul@temp:	
   964                           
   965                           ; 2 bytes @ 0x1C
   966  003C                     	ds	2
   967  003E                     ?_fround:	
   968  003E                     ?_scale:	
   969                           ; 4 bytes @ 0x1E
   970                           
   971  003E                     ___fldiv@bexp:	
   972                           ; 4 bytes @ 0x1E
   973                           
   974                           
   975                           ; 1 bytes @ 0x1E
   976  003E                     	ds	1
   977  003F                     ___fldiv@aexp:	
   978                           
   979                           ; 1 bytes @ 0x1F
   980  003F                     	ds	3
   981  0042                     ??_fround:	
   982  0042                     ??_scale:	
   983                           ; 1 bytes @ 0x22
   984                           
   985                           
   986                           ; 1 bytes @ 0x22
   987  0042                     	ds	7
   988  0049                     _fround$778:	
   989                           
   990                           ; 4 bytes @ 0x29
   991  0049                     	ds	3
   992  004C                     _scale$779:	
   993                           
   994                           ; 4 bytes @ 0x2C
   995  004C                     	ds	1
   996  004D                     _fround$777:	
   997                           
   998                           ; 4 bytes @ 0x2D
   999  004D                     	ds	3
  1000  0050                     scale@scl:	
  1001                           
  1002                           ; 1 bytes @ 0x30
  1003  0050                     	ds	1
  1004  0051                     ?___fltol:	
  1005  0051                     fround@prec:	
  1006                           ; 4 bytes @ 0x31
  1007                           
  1008  0051                     ___fltol@f1:	
  1009                           ; 1 bytes @ 0x31
  1010                           
  1011                           
  1012                           ; 4 bytes @ 0x31
  1013  0051                     	ds	1
  1014  0052                     ?___fladd:	
  1015  0052                     ___fladd@b:	
  1016                           ; 4 bytes @ 0x32
  1017                           
  1018                           
  1019                           ; 4 bytes @ 0x32
  1020  0052                     	ds	3
  1021  0055                     ??___fltol:	
  1022                           
  1023                           ; 1 bytes @ 0x35
  1024  0055                     	ds	1
  1025  0056                     ___fladd@a:	
  1026                           
  1027                           ; 4 bytes @ 0x36
  1028  0056                     	ds	4
  1029  005A                     ??___fladd:	
  1030  005A                     ___fltol@sign1:	
  1031                           ; 1 bytes @ 0x3A
  1032                           
  1033                           
  1034                           ; 1 bytes @ 0x3A
  1035  005A                     	ds	1
  1036  005B                     ___fltol@exp1:	
  1037                           
  1038                           ; 1 bytes @ 0x3B
  1039  005B                     	ds	7
  1040  0062                     ___fladd@signs:	
  1041                           
  1042                           ; 1 bytes @ 0x42
  1043  0062                     	ds	1
  1044  0063                     ___fladd@aexp:	
  1045                           
  1046                           ; 1 bytes @ 0x43
  1047  0063                     	ds	1
  1048  0064                     ___fladd@bexp:	
  1049                           
  1050                           ; 1 bytes @ 0x44
  1051  0064                     	ds	1
  1052  0065                     ___fladd@grs:	
  1053                           
  1054                           ; 1 bytes @ 0x45
  1055  0065                     	ds	1
  1056  0066                     ?___flsub:	
  1057  0066                     ___flsub@a:	
  1058                           ; 4 bytes @ 0x46
  1059                           
  1060                           
  1061                           ; 4 bytes @ 0x46
  1062  0066                     	ds	4
  1063  006A                     ___flsub@b:	
  1064                           
  1065                           ; 4 bytes @ 0x4A
  1066  006A                     	ds	4
  1067                           
  1068                           	psect	maintext
  1069  1BBE                     __pmaintext:	
  1070 ;;
  1071 ;;Main: autosize = 0, tempsize = 0, incstack = 0, save=0
  1072 ;;
  1073 ;; *************** function _main *****************
  1074 ;; Defined at:
  1075 ;;		line 36 in file "main.c"
  1076 ;; Parameters:    Size  Location     Type
  1077 ;;		None
  1078 ;; Auto vars:     Size  Location     Type
  1079 ;;		None
  1080 ;; Return value:  Size  Location     Type
  1081 ;;                  1    wreg      void 
  1082 ;; Registers used:
  1083 ;;		wreg, fsr0l, fsr0h, status,2, status,0, btemp+1, pclath, cstack
  1084 ;; Tracked objects:
  1085 ;;		On entry : B00/0
  1086 ;;		On exit  : 0/0
  1087 ;;		Unchanged: 0/0
  1088 ;; Data sizes:     COMMON   BANK0   BANK1   BANK3   BANK2
  1089 ;;      Params:         0       0       0       0       0
  1090 ;;      Locals:         0       0       0       0       0
  1091 ;;      Temps:          0       0       0       0       0
  1092 ;;      Totals:         0       0       0       0       0
  1093 ;;Total ram usage:        0 bytes
  1094 ;; Hardware stack levels required when called:    5
  1095 ;; This function calls:
  1096 ;;		_ADC_Init
  1097 ;;		_ADC_Read
  1098 ;;		_Lcd_Clear
  1099 ;;		_Lcd_Start
  1100 ;; This function is called by:
  1101 ;;		Startup code after reset
  1102 ;; This function uses a non-reentrant model
  1103 ;;
  1104                           
  1105                           
  1106                           ;psect for function _main
  1107  1BBE                     _main:	
  1108  1BBE                     l3345:	
  1109                           ;incstack = 0
  1110                           ; Regs used in _main: [wreg-fsr0h+status,2+status,0+btemp+1+pclath+cstack]
  1111                           
  1112                           
  1113                           ;main.c: 38:     TRISD = 0x00;
  1114  1BBE  1683               	bsf	3,5	;RP0=1, select bank1
  1115  1BBF  1303               	bcf	3,6	;RP1=0, select bank1
  1116  1BC0  0188               	clrf	8	;volatile
  1117  1BC1                     l3347:	
  1118                           
  1119                           ;main.c: 39:     Lcd_Start();
  1120  1BC1  160A  158A  24A5  160A  158A  	fcall	_Lcd_Start
  1121  1BC6                     l3349:	
  1122                           
  1123                           ;main.c: 40:     Lcd_Clear();
  1124  1BC6  160A  118A  20B5  160A  158A  	fcall	_Lcd_Clear
  1125  1BCB                     l3351:	
  1126                           
  1127                           ;main.c: 41:     ADC_Init();
  1128  1BCB  120A  158A  2001  160A  158A  	fcall	_ADC_Init
  1129  1BD0                     l3353:	
  1130                           
  1131                           ;main.c: 45:         ADC_Read();
  1132  1BD0  120A  158A  2012  160A  158A  	fcall	_ADC_Read
  1133  1BD5  2BD0               	goto	l3353
  1134  1BD6  120A  118A  2800   	ljmp	start
  1135  1BD9                     __end_of_main:	
  1136                           
  1137                           	psect	text1
  1138  1CA5                     __ptext1:	
  1139 ;; *************** function _Lcd_Start *****************
  1140 ;; Defined at:
  1141 ;;		line 72 in file "./LCD_driver.c"
  1142 ;; Parameters:    Size  Location     Type
  1143 ;;		None
  1144 ;; Auto vars:     Size  Location     Type
  1145 ;;		None
  1146 ;; Return value:  Size  Location     Type
  1147 ;;                  1    wreg      void 
  1148 ;; Registers used:
  1149 ;;		wreg, status,2, status,0, pclath, cstack
  1150 ;; Tracked objects:
  1151 ;;		On entry : 0/0
  1152 ;;		On exit  : 0/0
  1153 ;;		Unchanged: 0/0
  1154 ;; Data sizes:     COMMON   BANK0   BANK1   BANK3   BANK2
  1155 ;;      Params:         0       0       0       0       0
  1156 ;;      Locals:         0       0       0       0       0
  1157 ;;      Temps:          0       0       0       0       0
  1158 ;;      Totals:         0       0       0       0       0
  1159 ;;Total ram usage:        0 bytes
  1160 ;; Hardware stack levels used:    1
  1161 ;; Hardware stack levels required when called:    2
  1162 ;; This function calls:
  1163 ;;		_Lcd_Cmd
  1164 ;;		_Lcd_SetBit
  1165 ;; This function is called by:
  1166 ;;		_main
  1167 ;; This function uses a non-reentrant model
  1168 ;;
  1169                           
  1170                           
  1171                           ;psect for function _Lcd_Start
  1172  1CA5                     _Lcd_Start:	
  1173  1CA5                     l3317:	
  1174                           ;incstack = 0
  1175                           ; Regs used in _Lcd_Start: [wreg+status,2+status,0+pclath+cstack]
  1176                           
  1177                           
  1178                           ;./LCD_driver.c: 75:   Lcd_SetBit(0x00);
  1179  1CA5  3000               	movlw	0
  1180  1CA6  160A  158A  23D9  160A  158A  	fcall	_Lcd_SetBit
  1181                           
  1182                           ;./LCD_driver.c: 79:   Lcd_Cmd(0x03);
  1183  1CAB  3003               	movlw	3
  1184  1CAC  160A  158A  23A4  160A  158A  	fcall	_Lcd_Cmd
  1185                           
  1186                           ;./LCD_driver.c: 81:   Lcd_Cmd(0x03);
  1187  1CB1  3003               	movlw	3
  1188  1CB2  160A  158A  23A4  160A  158A  	fcall	_Lcd_Cmd
  1189                           
  1190                           ;./LCD_driver.c: 82:   Lcd_Cmd(0x02);
  1191  1CB7  3002               	movlw	2
  1192  1CB8  160A  158A  23A4  160A  158A  	fcall	_Lcd_Cmd
  1193                           
  1194                           ;./LCD_driver.c: 83:   Lcd_Cmd(0x02);
  1195  1CBD  3002               	movlw	2
  1196  1CBE  160A  158A  23A4  160A  158A  	fcall	_Lcd_Cmd
  1197                           
  1198                           ;./LCD_driver.c: 84:   Lcd_Cmd(0x08);
  1199  1CC3  3008               	movlw	8
  1200  1CC4  160A  158A  23A4  160A  158A  	fcall	_Lcd_Cmd
  1201                           
  1202                           ;./LCD_driver.c: 85:   Lcd_Cmd(0x00);
  1203  1CC9  3000               	movlw	0
  1204  1CCA  160A  158A  23A4  160A  158A  	fcall	_Lcd_Cmd
  1205                           
  1206                           ;./LCD_driver.c: 86:   Lcd_Cmd(0x0C);
  1207  1CCF  300C               	movlw	12
  1208  1CD0  160A  158A  23A4  160A  158A  	fcall	_Lcd_Cmd
  1209                           
  1210                           ;./LCD_driver.c: 87:   Lcd_Cmd(0x00);
  1211  1CD5  3000               	movlw	0
  1212  1CD6  160A  158A  23A4  160A  158A  	fcall	_Lcd_Cmd
  1213                           
  1214                           ;./LCD_driver.c: 88:   Lcd_Cmd(0x06);
  1215  1CDB  3006               	movlw	6
  1216  1CDC  160A  158A  23A4  160A  158A  	fcall	_Lcd_Cmd
  1217  1CE1                     l62:	
  1218  1CE1  0008               	return
  1219  1CE2                     __end_of_Lcd_Start:	
  1220                           
  1221                           	psect	text2
  1222  0812                     __ptext2:	
  1223 ;; *************** function _ADC_Read *****************
  1224 ;; Defined at:
  1225 ;;		line 60 in file "main.c"
  1226 ;; Parameters:    Size  Location     Type
  1227 ;;		None
  1228 ;; Auto vars:     Size  Location     Type
  1229 ;;		None
  1230 ;; Return value:  Size  Location     Type
  1231 ;;                  1    wreg      void 
  1232 ;; Registers used:
  1233 ;;		wreg, fsr0l, fsr0h, status,2, status,0, btemp+1, pclath, cstack
  1234 ;; Tracked objects:
  1235 ;;		On entry : 0/0
  1236 ;;		On exit  : 0/0
  1237 ;;		Unchanged: 0/0
  1238 ;; Data sizes:     COMMON   BANK0   BANK1   BANK3   BANK2
  1239 ;;      Params:         0       0       0       0       0
  1240 ;;      Locals:         0       0       0       0       0
  1241 ;;      Temps:          0       0       3       0       0
  1242 ;;      Totals:         0       0       3       0       0
  1243 ;;Total ram usage:        3 bytes
  1244 ;; Hardware stack levels used:    1
  1245 ;; Hardware stack levels required when called:    4
  1246 ;; This function calls:
  1247 ;;		_Lcd_Clear
  1248 ;;		_Lcd_Print_String
  1249 ;;		_Lcd_Set_Cursor
  1250 ;;		___fldiv
  1251 ;;		___flmul
  1252 ;;		___wmul
  1253 ;;		___xxtofl
  1254 ;;		_sprintf
  1255 ;; This function is called by:
  1256 ;;		_main
  1257 ;; This function uses a non-reentrant model
  1258 ;;
  1259                           
  1260                           
  1261                           ;psect for function _ADC_Read
  1262  0812                     _ADC_Read:	
  1263  0812                     l3319:	
  1264                           ;incstack = 0
  1265                           ; Regs used in _ADC_Read: [wreg-fsr0h+status,2+status,0+btemp+1+pclath+cstack]
  1266                           
  1267                           
  1268                           ;main.c: 62:     _delay((unsigned long)((4)*(80000000/4000.0)));
  1269  0812  3068               	movlw	104
  1270  0813  1683               	bsf	3,5	;RP0=1, select bank1
  1271  0814  1303               	bcf	3,6	;RP1=0, select bank1
  1272  0815  00C4               	movwf	(??_ADC_Read^(0+128)+1)
  1273  0816  30E3               	movlw	227
  1274  0817  00C3               	movwf	??_ADC_Read^(0+128)
  1275  0818                     u5817:	
  1276  0818  0BC3               	decfsz	??_ADC_Read^(0+128),f
  1277  0819  2818               	goto	u5817
  1278  081A  0BC4               	decfsz	(??_ADC_Read^(0+128)+1),f
  1279  081B  2818               	goto	u5817
  1280  081C  281D               	nop2
  1281  081D                     l3321:	
  1282                           
  1283                           ;main.c: 63:     GO_nDONE = 1;
  1284  081D  1283               	bcf	3,5	;RP0=0, select bank0
  1285  081E  1303               	bcf	3,6	;RP1=0, select bank0
  1286  081F  149F               	bsf	31,1	;volatile
  1287  0820                     l93:	
  1288                           ;main.c: 64:     while(GO_nDONE);
  1289                           
  1290  0820  189F               	btfsc	31,1	;volatile
  1291  0821  2823               	goto	u5801
  1292  0822  2824               	goto	u5800
  1293  0823                     u5801:	
  1294  0823  2820               	goto	l93
  1295  0824                     u5800:	
  1296  0824                     l3323:	
  1297                           
  1298                           ;main.c: 66:     int_data = (ADRESH<<8) + ADRESL;
  1299  0824  081E               	movf	30,w	;volatile
  1300  0825  1683               	bsf	3,5	;RP0=1, select bank1
  1301  0826  1303               	bcf	3,6	;RP1=0, select bank1
  1302  0827  00CF               	movwf	(_int_data+1)^(0+128)
  1303  0828  081E               	movf	30,w	;volatile
  1304  0829  00CE               	movwf	_int_data^(0+128)
  1305  082A                     l3325:	
  1306                           
  1307                           ;main.c: 67:     scaled_float_data =((float)(int_data*5)/(float)(1024));
  1308  082A  3044               	movlw	68
  1309  082B  1283               	bcf	3,5	;RP0=0, select bank0
  1310  082C  1303               	bcf	3,6	;RP1=0, select bank0
  1311  082D  00A9               	movwf	___fldiv@a+3
  1312  082E  3080               	movlw	128
  1313  082F  00A8               	movwf	___fldiv@a+2
  1314  0830  3000               	movlw	0
  1315  0831  00A7               	movwf	___fldiv@a+1
  1316  0832  3000               	movlw	0
  1317  0833  00A6               	movwf	___fldiv@a
  1318  0834  3005               	movlw	5
  1319  0835  00F2               	movwf	___wmul@multiplicand
  1320  0836  3000               	movlw	0
  1321  0837  00F3               	movwf	___wmul@multiplicand+1
  1322  0838  1683               	bsf	3,5	;RP0=1, select bank1
  1323  0839  1303               	bcf	3,6	;RP1=0, select bank1
  1324  083A  084F               	movf	(_int_data+1)^(0+128),w
  1325  083B  00F1               	movwf	___wmul@multiplier+1
  1326  083C  084E               	movf	_int_data^(0+128),w
  1327  083D  00F0               	movwf	___wmul@multiplier
  1328  083E  160A  158A  241F  120A  158A  	fcall	___wmul
  1329  0843  0870               	movf	?___wmul,w
  1330  0844  00F6               	movwf	___xxtofl@val
  1331  0845  0871               	movf	?___wmul+1,w
  1332  0846  00F7               	movwf	___xxtofl@val+1
  1333  0847  3000               	movlw	0
  1334  0848  1BF7               	btfsc	___xxtofl@val+1,7
  1335  0849  30FF               	movlw	255
  1336  084A  00F8               	movwf	___xxtofl@val+2
  1337  084B  00F9               	movwf	___xxtofl@val+3
  1338  084C  3001               	movlw	1
  1339  084D  160A  118A  2164  120A  158A  	fcall	___xxtofl
  1340  0852  0879               	movf	?___xxtofl+3,w
  1341  0853  1283               	bcf	3,5	;RP0=0, select bank0
  1342  0854  1303               	bcf	3,6	;RP1=0, select bank0
  1343  0855  00AD               	movwf	___fldiv@b+3
  1344  0856  0878               	movf	?___xxtofl+2,w
  1345  0857  00AC               	movwf	___fldiv@b+2
  1346  0858  0877               	movf	?___xxtofl+1,w
  1347  0859  00AB               	movwf	___fldiv@b+1
  1348  085A  0876               	movf	?___xxtofl,w
  1349  085B  00AA               	movwf	___fldiv@b
  1350  085C  160A  118A  239B  120A  158A  	fcall	___fldiv
  1351  0861  1283               	bcf	3,5	;RP0=0, select bank0
  1352  0862  1303               	bcf	3,6	;RP1=0, select bank0
  1353  0863  0829               	movf	?___fldiv+3,w
  1354  0864  1683               	bsf	3,5	;RP0=1, select bank1
  1355  0865  1303               	bcf	3,6	;RP1=0, select bank1
  1356  0866  00CD               	movwf	(_scaled_float_data+3)^(0+128)
  1357  0867  1283               	bcf	3,5	;RP0=0, select bank0
  1358  0868  1303               	bcf	3,6	;RP1=0, select bank0
  1359  0869  0828               	movf	?___fldiv+2,w
  1360  086A  1683               	bsf	3,5	;RP0=1, select bank1
  1361  086B  1303               	bcf	3,6	;RP1=0, select bank1
  1362  086C  00CC               	movwf	(_scaled_float_data+2)^(0+128)
  1363  086D  1283               	bcf	3,5	;RP0=0, select bank0
  1364  086E  1303               	bcf	3,6	;RP1=0, select bank0
  1365  086F  0827               	movf	?___fldiv+1,w
  1366  0870  1683               	bsf	3,5	;RP0=1, select bank1
  1367  0871  1303               	bcf	3,6	;RP1=0, select bank1
  1368  0872  00CB               	movwf	(_scaled_float_data+1)^(0+128)
  1369  0873  1283               	bcf	3,5	;RP0=0, select bank0
  1370  0874  1303               	bcf	3,6	;RP1=0, select bank0
  1371  0875  0826               	movf	?___fldiv,w
  1372  0876  1683               	bsf	3,5	;RP0=1, select bank1
  1373  0877  1303               	bcf	3,6	;RP1=0, select bank1
  1374  0878  00CA               	movwf	_scaled_float_data^(0+128)
  1375  0879                     l3327:	
  1376                           
  1377                           ;main.c: 68:     scaled_temperature = scaled_float_data*1000;
  1378  0879  3044               	movlw	68
  1379  087A  1283               	bcf	3,5	;RP0=0, select bank0
  1380  087B  1303               	bcf	3,6	;RP1=0, select bank0
  1381  087C  00A7               	movwf	___flmul@b+3
  1382  087D  307A               	movlw	122
  1383  087E  00A6               	movwf	___flmul@b+2
  1384  087F  3000               	movlw	0
  1385  0880  00A5               	movwf	___flmul@b+1
  1386  0881  3000               	movlw	0
  1387  0882  00A4               	movwf	___flmul@b
  1388  0883  1683               	bsf	3,5	;RP0=1, select bank1
  1389  0884  1303               	bcf	3,6	;RP1=0, select bank1
  1390  0885  084D               	movf	(_scaled_float_data+3)^(0+128),w
  1391  0886  1283               	bcf	3,5	;RP0=0, select bank0
  1392  0887  1303               	bcf	3,6	;RP1=0, select bank0
  1393  0888  00AB               	movwf	___flmul@a+3
  1394  0889  1683               	bsf	3,5	;RP0=1, select bank1
  1395  088A  1303               	bcf	3,6	;RP1=0, select bank1
  1396  088B  084C               	movf	(_scaled_float_data+2)^(0+128),w
  1397  088C  1283               	bcf	3,5	;RP0=0, select bank0
  1398  088D  1303               	bcf	3,6	;RP1=0, select bank0
  1399  088E  00AA               	movwf	___flmul@a+2
  1400  088F  1683               	bsf	3,5	;RP0=1, select bank1
  1401  0890  1303               	bcf	3,6	;RP1=0, select bank1
  1402  0891  084B               	movf	(_scaled_float_data+1)^(0+128),w
  1403  0892  1283               	bcf	3,5	;RP0=0, select bank0
  1404  0893  1303               	bcf	3,6	;RP1=0, select bank0
  1405  0894  00A9               	movwf	___flmul@a+1
  1406  0895  1683               	bsf	3,5	;RP0=1, select bank1
  1407  0896  1303               	bcf	3,6	;RP1=0, select bank1
  1408  0897  084A               	movf	_scaled_float_data^(0+128),w
  1409  0898  1283               	bcf	3,5	;RP0=0, select bank0
  1410  0899  1303               	bcf	3,6	;RP1=0, select bank0
  1411  089A  00A8               	movwf	___flmul@a
  1412  089B  120A  158A  249F  120A  158A  	fcall	___flmul
  1413  08A0  1283               	bcf	3,5	;RP0=0, select bank0
  1414  08A1  1303               	bcf	3,6	;RP1=0, select bank0
  1415  08A2  0827               	movf	?___flmul+3,w
  1416  08A3  1683               	bsf	3,5	;RP0=1, select bank1
  1417  08A4  1303               	bcf	3,6	;RP1=0, select bank1
  1418  08A5  00C9               	movwf	(_scaled_temperature+3)^(0+128)
  1419  08A6  1283               	bcf	3,5	;RP0=0, select bank0
  1420  08A7  1303               	bcf	3,6	;RP1=0, select bank0
  1421  08A8  0826               	movf	?___flmul+2,w
  1422  08A9  1683               	bsf	3,5	;RP0=1, select bank1
  1423  08AA  1303               	bcf	3,6	;RP1=0, select bank1
  1424  08AB  00C8               	movwf	(_scaled_temperature+2)^(0+128)
  1425  08AC  1283               	bcf	3,5	;RP0=0, select bank0
  1426  08AD  1303               	bcf	3,6	;RP1=0, select bank0
  1427  08AE  0825               	movf	?___flmul+1,w
  1428  08AF  1683               	bsf	3,5	;RP0=1, select bank1
  1429  08B0  1303               	bcf	3,6	;RP1=0, select bank1
  1430  08B1  00C7               	movwf	(_scaled_temperature+1)^(0+128)
  1431  08B2  1283               	bcf	3,5	;RP0=0, select bank0
  1432  08B3  1303               	bcf	3,6	;RP1=0, select bank0
  1433  08B4  0824               	movf	?___flmul,w
  1434  08B5  1683               	bsf	3,5	;RP0=1, select bank1
  1435  08B6  1303               	bcf	3,6	;RP1=0, select bank1
  1436  08B7  00C6               	movwf	_scaled_temperature^(0+128)
  1437  08B8                     l3329:	
  1438                           
  1439                           ;main.c: 69:     scaled_temperature = scaled_temperature/10;
  1440  08B8  3041               	movlw	65
  1441  08B9  1283               	bcf	3,5	;RP0=0, select bank0
  1442  08BA  1303               	bcf	3,6	;RP1=0, select bank0
  1443  08BB  00A9               	movwf	___fldiv@a+3
  1444  08BC  3020               	movlw	32
  1445  08BD  00A8               	movwf	___fldiv@a+2
  1446  08BE  3000               	movlw	0
  1447  08BF  00A7               	movwf	___fldiv@a+1
  1448  08C0  3000               	movlw	0
  1449  08C1  00A6               	movwf	___fldiv@a
  1450  08C2  1683               	bsf	3,5	;RP0=1, select bank1
  1451  08C3  1303               	bcf	3,6	;RP1=0, select bank1
  1452  08C4  0849               	movf	(_scaled_temperature+3)^(0+128),w
  1453  08C5  1283               	bcf	3,5	;RP0=0, select bank0
  1454  08C6  1303               	bcf	3,6	;RP1=0, select bank0
  1455  08C7  00AD               	movwf	___fldiv@b+3
  1456  08C8  1683               	bsf	3,5	;RP0=1, select bank1
  1457  08C9  1303               	bcf	3,6	;RP1=0, select bank1
  1458  08CA  0848               	movf	(_scaled_temperature+2)^(0+128),w
  1459  08CB  1283               	bcf	3,5	;RP0=0, select bank0
  1460  08CC  1303               	bcf	3,6	;RP1=0, select bank0
  1461  08CD  00AC               	movwf	___fldiv@b+2
  1462  08CE  1683               	bsf	3,5	;RP0=1, select bank1
  1463  08CF  1303               	bcf	3,6	;RP1=0, select bank1
  1464  08D0  0847               	movf	(_scaled_temperature+1)^(0+128),w
  1465  08D1  1283               	bcf	3,5	;RP0=0, select bank0
  1466  08D2  1303               	bcf	3,6	;RP1=0, select bank0
  1467  08D3  00AB               	movwf	___fldiv@b+1
  1468  08D4  1683               	bsf	3,5	;RP0=1, select bank1
  1469  08D5  1303               	bcf	3,6	;RP1=0, select bank1
  1470  08D6  0846               	movf	_scaled_temperature^(0+128),w
  1471  08D7  1283               	bcf	3,5	;RP0=0, select bank0
  1472  08D8  1303               	bcf	3,6	;RP1=0, select bank0
  1473  08D9  00AA               	movwf	___fldiv@b
  1474  08DA  160A  118A  239B  120A  158A  	fcall	___fldiv
  1475  08DF  1283               	bcf	3,5	;RP0=0, select bank0
  1476  08E0  1303               	bcf	3,6	;RP1=0, select bank0
  1477  08E1  0829               	movf	?___fldiv+3,w
  1478  08E2  1683               	bsf	3,5	;RP0=1, select bank1
  1479  08E3  1303               	bcf	3,6	;RP1=0, select bank1
  1480  08E4  00C9               	movwf	(_scaled_temperature+3)^(0+128)
  1481  08E5  1283               	bcf	3,5	;RP0=0, select bank0
  1482  08E6  1303               	bcf	3,6	;RP1=0, select bank0
  1483  08E7  0828               	movf	?___fldiv+2,w
  1484  08E8  1683               	bsf	3,5	;RP0=1, select bank1
  1485  08E9  1303               	bcf	3,6	;RP1=0, select bank1
  1486  08EA  00C8               	movwf	(_scaled_temperature+2)^(0+128)
  1487  08EB  1283               	bcf	3,5	;RP0=0, select bank0
  1488  08EC  1303               	bcf	3,6	;RP1=0, select bank0
  1489  08ED  0827               	movf	?___fldiv+1,w
  1490  08EE  1683               	bsf	3,5	;RP0=1, select bank1
  1491  08EF  1303               	bcf	3,6	;RP1=0, select bank1
  1492  08F0  00C7               	movwf	(_scaled_temperature+1)^(0+128)
  1493  08F1  1283               	bcf	3,5	;RP0=0, select bank0
  1494  08F2  1303               	bcf	3,6	;RP1=0, select bank0
  1495  08F3  0826               	movf	?___fldiv,w
  1496  08F4  1683               	bsf	3,5	;RP0=1, select bank1
  1497  08F5  1303               	bcf	3,6	;RP1=0, select bank1
  1498  08F6  00C6               	movwf	_scaled_temperature^(0+128)
  1499  08F7                     l3331:	
  1500                           
  1501                           ;main.c: 70:     sprintf(char_data, "%f C", scaled_temperature);
  1502  08F7  309E               	movlw	(low ((STR_1-__stringbase)| (0+32768)))& (0+255)
  1503  08F8  00C3               	movwf	??_ADC_Read^(0+128)
  1504  08F9  0843               	movf	??_ADC_Read^(0+128),w
  1505  08FA  00A0               	movwf	sprintf@f^(0+128)
  1506  08FB  0849               	movf	(_scaled_temperature+3)^(0+128),w
  1507  08FC  00A4               	movwf	((?_sprintf+3)^(0+128)+1)
  1508  08FD  0848               	movf	(_scaled_temperature+2)^(0+128),w
  1509  08FE  00A3               	movwf	((?_sprintf+2)^(0+128)+1)
  1510  08FF  0847               	movf	(_scaled_temperature+1)^(0+128),w
  1511  0900  00A2               	movwf	((?_sprintf+1)^(0+128)+1)
  1512  0901  0846               	movf	_scaled_temperature^(0+128),w
  1513  0902  00A1               	movwf	(?_sprintf^(0+128)+1)
  1514  0903  30D0               	movlw	(low (_char_data| 0))& (0+255)
  1515  0904  120A  118A  2239  120A  158A  	fcall	_sprintf
  1516  0909                     l3333:	
  1517                           
  1518                           ;main.c: 72:     Lcd_Clear();
  1519  0909  160A  118A  20B5  120A  158A  	fcall	_Lcd_Clear
  1520  090E                     l3335:	
  1521                           
  1522                           ;main.c: 73:     Lcd_Set_Cursor(1,1);
  1523  090E  01F4               	clrf	Lcd_Set_Cursor@column
  1524  090F  0AF4               	incf	Lcd_Set_Cursor@column,f
  1525  0910  3001               	movlw	1
  1526  0911  160A  158A  25B6  120A  158A  	fcall	_Lcd_Set_Cursor
  1527  0916                     l3337:	
  1528                           
  1529                           ;main.c: 74:     Lcd_Print_String("Temp. actual");
  1530  0916  3091               	movlw	(low ((STR_2-__stringbase)| (0+32768)))& (0+255)
  1531  0917  00F5               	movwf	Lcd_Print_String@a
  1532  0918  3080               	movlw	128
  1533  0919  00F6               	movwf	Lcd_Print_String@a+1
  1534  091A  160A  158A  24E2  120A  158A  	fcall	_Lcd_Print_String
  1535  091F                     l3339:	
  1536                           
  1537                           ;main.c: 75:     Lcd_Set_Cursor(2,1);
  1538  091F  01F4               	clrf	Lcd_Set_Cursor@column
  1539  0920  0AF4               	incf	Lcd_Set_Cursor@column,f
  1540  0921  3002               	movlw	2
  1541  0922  160A  158A  25B6  120A  158A  	fcall	_Lcd_Set_Cursor
  1542  0927                     l3341:	
  1543                           
  1544                           ;main.c: 76:     Lcd_Print_String(char_data);
  1545  0927  30D0               	movlw	(low (_char_data| 0))& (0+255)
  1546  0928  00F5               	movwf	Lcd_Print_String@a
  1547  0929  3000               	movlw	0
  1548  092A  00F6               	movwf	Lcd_Print_String@a+1
  1549  092B  160A  158A  24E2  120A  158A  	fcall	_Lcd_Print_String
  1550  0930                     l3343:	
  1551                           
  1552                           ;main.c: 77:     _delay((unsigned long)((200)*(80000000/4000.0)));
  1553  0930  3015               	movlw	21
  1554  0931  1683               	bsf	3,5	;RP0=1, select bank1
  1555  0932  1303               	bcf	3,6	;RP1=0, select bank1
  1556  0933  00C5               	movwf	(??_ADC_Read^(0+128)+2)
  1557  0934  304B               	movlw	75
  1558  0935  00C4               	movwf	(??_ADC_Read^(0+128)+1)
  1559  0936  30BD               	movlw	189
  1560  0937  00C3               	movwf	??_ADC_Read^(0+128)
  1561  0938                     u5827:	
  1562  0938  0BC3               	decfsz	??_ADC_Read^(0+128),f
  1563  0939  2938               	goto	u5827
  1564  093A  0BC4               	decfsz	(??_ADC_Read^(0+128)+1),f
  1565  093B  2938               	goto	u5827
  1566  093C  0BC5               	decfsz	(??_ADC_Read^(0+128)+2),f
  1567  093D  2938               	goto	u5827
  1568  093E  293F               	nop2
  1569  093F                     l96:	
  1570  093F  0008               	return
  1571  0940                     __end_of_ADC_Read:	
  1572                           
  1573                           	psect	text3
  1574  0239                     __ptext3:	
  1575 ;; *************** function _sprintf *****************
  1576 ;; Defined at:
  1577 ;;		line 505 in file "C:\Program Files (x86)\Microchip\xc8\v2.10\pic\sources\c90\common\doprnt.c"
  1578 ;; Parameters:    Size  Location     Type
  1579 ;;  sp              1    wreg     PTR unsigned char 
  1580 ;;		 -> char_data(16), 
  1581 ;;  f               1    0[BANK1 ] PTR const unsigned char 
  1582 ;;		 -> STR_1(5), 
  1583 ;; Auto vars:     Size  Location     Type
  1584 ;;  sp              1   29[BANK1 ] PTR unsigned char 
  1585 ;;		 -> char_data(16), 
  1586 ;;  fval            4   30[BANK1 ] PTR unsigned char 
  1587 ;;  tmpval          4   25[BANK1 ] struct .
  1588 ;;  val             4   19[BANK1 ] unsigned long 
  1589 ;;  eexp            2   23[BANK1 ] int 
  1590 ;;  prec            2   17[BANK1 ] int 
  1591 ;;  flag            2   15[BANK1 ] unsigned short 
  1592 ;;  cp              2    0        PTR const unsigned char 
  1593 ;;  len             2    0        unsigned int 
  1594 ;;  width           2    0        int 
  1595 ;;  c               1   34[BANK1 ] unsigned char 
  1596 ;;  ap              1   14[BANK1 ] PTR void [1]
  1597 ;;		 -> ?_sprintf(2), 
  1598 ;;  d               1    0        unsigned char 
  1599 ;; Return value:  Size  Location     Type
  1600 ;;                  2    0[BANK1 ] int 
  1601 ;; Registers used:
  1602 ;;		wreg, fsr0l, fsr0h, status,2, status,0, btemp+1, pclath, cstack
  1603 ;; Tracked objects:
  1604 ;;		On entry : 0/0
  1605 ;;		On exit  : 0/0
  1606 ;;		Unchanged: 0/0
  1607 ;; Data sizes:     COMMON   BANK0   BANK1   BANK3   BANK2
  1608 ;;      Params:         0       0       5       0       0
  1609 ;;      Locals:         0       0      25       0       0
  1610 ;;      Temps:          0       0       5       0       0
  1611 ;;      Totals:         0       0      35       0       0
  1612 ;;Total ram usage:       35 bytes
  1613 ;; Hardware stack levels used:    1
  1614 ;; Hardware stack levels required when called:    3
  1615 ;; This function calls:
  1616 ;;		___awdiv
  1617 ;;		___fladd
  1618 ;;		___fleq
  1619 ;;		___flge
  1620 ;;		___flmul
  1621 ;;		___flneg
  1622 ;;		___flsub
  1623 ;;		___fltol
  1624 ;;		___lldiv
  1625 ;;		___llmod
  1626 ;;		___wmul
  1627 ;;		___xxtofl
  1628 ;;		__div_to_l_
  1629 ;;		__tdiv_to_l_
  1630 ;;		_fround
  1631 ;;		_scale
  1632 ;; This function is called by:
  1633 ;;		_ADC_Read
  1634 ;; This function uses a non-reentrant model
  1635 ;;
  1636                           
  1637                           
  1638                           ;psect for function _sprintf
  1639  0239                     _sprintf:	
  1640                           
  1641                           ;incstack = 0
  1642                           ; Regs used in _sprintf: [wreg-fsr0h+status,2+status,0+btemp+1+pclath+cstack]
  1643                           ;sprintf@sp stored from wreg
  1644  0239  1683               	bsf	3,5	;RP0=1, select bank1
  1645  023A  1303               	bcf	3,6	;RP1=0, select bank1
  1646  023B  00BD               	movwf	sprintf@sp^(0+128)
  1647  023C                     l3003:	
  1648                           
  1649                           ;C:\Program Files (x86)\Microchip\xc8\v2.10\pic\sources\c90\common\doprnt.c: 505: sprint
      +                          f(char * sp, const char * f, ...);C:\Program Files (x86)\Microchip\xc8\v2.10\pic\sources
      +                          \c90\common\doprnt.c: 506: {;C:\Program Files (x86)\Microchip\xc8\v2.10\pic\sources\c90\
      +                          common\doprnt.c: 507:  va_list ap;;C:\Program Files (x86)\Microchip\xc8\v2.10\pic\source
      +                          s\c90\common\doprnt.c: 512:  char c;;C:\Program Files (x86)\Microchip\xc8\v2.10\pic\sour
      +                          ces\c90\common\doprnt.c: 514:  int width;;C:\Program Files (x86)\Microchip\xc8\v2.10\pic
      +                          \sources\c90\common\doprnt.c: 517:  int prec;
  1650  023C  30A1               	movlw	(low ((?_sprintf| 0+1)))& (0+255)
  1651  023D  00A5               	movwf	??_sprintf^(0+128)
  1652  023E  0825               	movf	??_sprintf^(0+128),w
  1653  023F  00AE               	movwf	sprintf@ap^(0+128)
  1654                           
  1655                           ;C:\Program Files (x86)\Microchip\xc8\v2.10\pic\sources\c90\common\doprnt.c: 553:  while
      +                          ((c = *f++)) {
  1656  0240  2FDC               	goto	l3163
  1657  0241                     l3005:	
  1658                           
  1659                           ;C:\Program Files (x86)\Microchip\xc8\v2.10\pic\sources\c90\common\doprnt.c: 555:   if(c
      +                           != '%')
  1660  0241  3025               	movlw	37
  1661  0242  0642               	xorwf	sprintf@c^(0+128),w
  1662  0243  1903               	btfsc	3,2
  1663  0244  2A46               	goto	u5241
  1664  0245  2A47               	goto	u5240
  1665  0246                     u5241:	
  1666  0246  2A53               	goto	l3011
  1667  0247                     u5240:	
  1668  0247                     l3007:	
  1669                           
  1670                           ;C:\Program Files (x86)\Microchip\xc8\v2.10\pic\sources\c90\common\doprnt.c: 557:   {;C:
      +                          \Program Files (x86)\Microchip\xc8\v2.10\pic\sources\c90\common\doprnt.c: 558:    ((*sp+
      +                          + = (c)));
  1671  0247  0842               	movf	sprintf@c^(0+128),w
  1672  0248  00A5               	movwf	??_sprintf^(0+128)
  1673  0249  083D               	movf	sprintf@sp^(0+128),w
  1674  024A  0084               	movwf	4
  1675  024B  0825               	movf	??_sprintf^(0+128),w
  1676  024C  1383               	bcf	3,7	;select IRP bank0
  1677  024D  0080               	movwf	0
  1678  024E                     l3009:	
  1679  024E  3001               	movlw	1
  1680  024F  00A5               	movwf	??_sprintf^(0+128)
  1681  0250  0825               	movf	??_sprintf^(0+128),w
  1682  0251  07BD               	addwf	sprintf@sp^(0+128),f
  1683                           
  1684                           ;C:\Program Files (x86)\Microchip\xc8\v2.10\pic\sources\c90\common\doprnt.c: 559:    con
      +                          tinue;
  1685  0252  2FDC               	goto	l3163
  1686  0253                     l3011:	
  1687                           
  1688                           ;C:\Program Files (x86)\Microchip\xc8\v2.10\pic\sources\c90\common\doprnt.c: 565:   flag
      +                           = 0;
  1689  0253  01AF               	clrf	sprintf@flag^(0+128)
  1690  0254  01B0               	clrf	(sprintf@flag+1)^(0+128)
  1691                           
  1692                           ;C:\Program Files (x86)\Microchip\xc8\v2.10\pic\sources\c90\common\doprnt.c: 661:   swit
      +                          ch(c = *f++) {
  1693  0255  2A58               	goto	l3015
  1694  0256                     l217:	
  1695                           ;C:\Program Files (x86)\Microchip\xc8\v2.10\pic\sources\c90\common\doprnt.c: 688:   case
      +                           'f':
  1696                           
  1697                           
  1698                           ;C:\Program Files (x86)\Microchip\xc8\v2.10\pic\sources\c90\common\doprnt.c: 689:    fla
      +                          g |= 0x400;
  1699  0256  1530               	bsf	(sprintf@flag^(0+128)+1),2
  1700                           
  1701                           ;C:\Program Files (x86)\Microchip\xc8\v2.10\pic\sources\c90\common\doprnt.c: 690:    bre
      +                          ak;
  1702  0257  2A72               	goto	l3017
  1703  0258                     l3015:	
  1704  0258  3001               	movlw	1
  1705  0259  07A0               	addwf	sprintf@f^(0+128),f
  1706  025A  30FF               	movlw	-1
  1707  025B  0720               	addwf	sprintf@f^(0+128),w
  1708  025C  0084               	movwf	4
  1709  025D  160A  118A  200A  120A  118A  	fcall	stringdir
  1710  0262  00C2               	movwf	sprintf@c^(0+128)
  1711  0263  00A5               	movwf	??_sprintf^(0+128)
  1712  0264  01A6               	clrf	(??_sprintf^(0+128)+1)
  1713                           
  1714                           ; Switch on 2 bytes has been partitioned into a top level switch of size 1, and 1 sub-sw
      +                          itches
  1715                           ; Switch size 1, requested type "simple"
  1716                           ; Number of cases is 1, Range of values is 0 to 0
  1717                           ; switch strategies available:
  1718                           ; Name         Instructions Cycles
  1719                           ; simple_byte            4     3 (average)
  1720                           ; direct_byte           11     8 (fixed)
  1721                           ; jumptable            260     6 (fixed)
  1722                           ;	Chosen strategy is simple_byte
  1723  0265  0826               	movf	(??_sprintf+1)^(0+128),w
  1724  0266  3A00               	xorlw	0	; case 0
  1725  0267  1903               	skipnz
  1726  0268  2A6A               	goto	l3385
  1727  0269  2FDC               	goto	l3163
  1728  026A                     l3385:	
  1729                           
  1730                           ; Switch size 1, requested type "simple"
  1731                           ; Number of cases is 2, Range of values is 0 to 102
  1732                           ; switch strategies available:
  1733                           ; Name         Instructions Cycles
  1734                           ; simple_byte            7     4 (average)
  1735                           ; jumptable            260     6 (fixed)
  1736                           ;	Chosen strategy is simple_byte
  1737  026A  0825               	movf	??_sprintf^(0+128),w
  1738  026B  3A00               	xorlw	0	; case 0
  1739  026C  1903               	skipnz
  1740  026D  2FEE               	goto	l3165
  1741  026E  3A66               	xorlw	102	; case 102
  1742  026F  1903               	skipnz
  1743  0270  2A56               	goto	l217
  1744  0271  2FDC               	goto	l3163
  1745  0272                     l3017:	
  1746                           
  1747                           ;C:\Program Files (x86)\Microchip\xc8\v2.10\pic\sources\c90\common\doprnt.c: 851:   if(f
      +                          lag & (0x700)) {
  1748  0272  3000               	movlw	0
  1749  0273  052F               	andwf	sprintf@flag^(0+128),w
  1750  0274  00A5               	movwf	??_sprintf^(0+128)
  1751  0275  3007               	movlw	7
  1752  0276  0530               	andwf	(sprintf@flag+1)^(0+128),w
  1753  0277  00A6               	movwf	(??_sprintf+1)^(0+128)
  1754  0278  0825               	movf	??_sprintf^(0+128),w
  1755  0279  0426               	iorwf	(??_sprintf^(0+128)+1),w
  1756  027A  1903               	btfsc	3,2
  1757  027B  2A7D               	goto	u5251
  1758  027C  2A7E               	goto	u5250
  1759  027D                     u5251:	
  1760  027D  2FC8               	goto	l3157
  1761  027E                     u5250:	
  1762  027E                     l3019:	
  1763                           
  1764                           ;C:\Program Files (x86)\Microchip\xc8\v2.10\pic\sources\c90\common\doprnt.c: 855:     pr
      +                          ec = 6;
  1765  027E  3006               	movlw	6
  1766  027F  00B1               	movwf	sprintf@prec^(0+128)
  1767  0280  3000               	movlw	0
  1768  0281  00B2               	movwf	(sprintf@prec^(0+128)+1)
  1769  0282                     l3021:	
  1770                           
  1771                           ;C:\Program Files (x86)\Microchip\xc8\v2.10\pic\sources\c90\common\doprnt.c: 856:    fva
      +                          l = (*(double *)__va_arg((*(double **)ap), (double)0));
  1772  0282  082E               	movf	sprintf@ap^(0+128),w
  1773  0283  0084               	movwf	4
  1774  0284  1383               	bcf	3,7	;select IRP bank0
  1775  0285  0800               	movf	0,w
  1776  0286  00BE               	movwf	sprintf@fval^(0+128)
  1777  0287  0A84               	incf	4,f
  1778  0288  0800               	movf	0,w
  1779  0289  00BF               	movwf	(sprintf@fval+1)^(0+128)
  1780  028A  0A84               	incf	4,f
  1781  028B  0800               	movf	0,w
  1782  028C  00C0               	movwf	(sprintf@fval+2)^(0+128)
  1783  028D  0A84               	incf	4,f
  1784  028E  0800               	movf	0,w
  1785  028F  00C1               	movwf	(sprintf@fval+3)^(0+128)
  1786  0290                     l3023:	
  1787  0290  3004               	movlw	4
  1788  0291  00A5               	movwf	??_sprintf^(0+128)
  1789  0292  0825               	movf	??_sprintf^(0+128),w
  1790  0293  07AE               	addwf	sprintf@ap^(0+128),f
  1791  0294                     l3025:	
  1792                           
  1793                           ;C:\Program Files (x86)\Microchip\xc8\v2.10\pic\sources\c90\common\doprnt.c: 857:    if(
      +                          fval < 0.0) {
  1794  0294  0841               	movf	(sprintf@fval+3)^(0+128),w
  1795  0295  00F3               	movwf	___flge@ff1+3
  1796  0296  0840               	movf	(sprintf@fval+2)^(0+128),w
  1797  0297  00F2               	movwf	___flge@ff1+2
  1798  0298  083F               	movf	(sprintf@fval+1)^(0+128),w
  1799  0299  00F1               	movwf	___flge@ff1+1
  1800  029A  083E               	movf	sprintf@fval^(0+128),w
  1801  029B  00F0               	movwf	___flge@ff1
  1802  029C  3000               	movlw	0
  1803  029D  00F7               	movwf	___flge@ff2+3
  1804  029E  3000               	movlw	0
  1805  029F  00F6               	movwf	___flge@ff2+2
  1806  02A0  3000               	movlw	0
  1807  02A1  00F5               	movwf	___flge@ff2+1
  1808  02A2  3000               	movlw	0
  1809  02A3  00F4               	movwf	___flge@ff2
  1810  02A4  160A  118A  20C2  120A  118A  	fcall	___flge
  1811  02A9  1803               	btfsc	3,0
  1812  02AA  2AAC               	goto	u5261
  1813  02AB  2AAD               	goto	u5260
  1814  02AC                     u5261:	
  1815  02AC  2ACA               	goto	l3031
  1816  02AD                     u5260:	
  1817  02AD                     l3027:	
  1818                           
  1819                           ;C:\Program Files (x86)\Microchip\xc8\v2.10\pic\sources\c90\common\doprnt.c: 858:     fv
      +                          al = -fval;
  1820  02AD  1683               	bsf	3,5	;RP0=1, select bank1
  1821  02AE  1303               	bcf	3,6	;RP1=0, select bank1
  1822  02AF  0841               	movf	(sprintf@fval+3)^(0+128),w
  1823  02B0  00F3               	movwf	___flneg@f1+3
  1824  02B1  0840               	movf	(sprintf@fval+2)^(0+128),w
  1825  02B2  00F2               	movwf	___flneg@f1+2
  1826  02B3  083F               	movf	(sprintf@fval+1)^(0+128),w
  1827  02B4  00F1               	movwf	___flneg@f1+1
  1828  02B5  083E               	movf	sprintf@fval^(0+128),w
  1829  02B6  00F0               	movwf	___flneg@f1
  1830  02B7  160A  158A  2399  120A  118A  	fcall	___flneg
  1831  02BC  0873               	movf	?___flneg+3,w
  1832  02BD  1683               	bsf	3,5	;RP0=1, select bank1
  1833  02BE  1303               	bcf	3,6	;RP1=0, select bank1
  1834  02BF  00C1               	movwf	(sprintf@fval+3)^(0+128)
  1835  02C0  0872               	movf	?___flneg+2,w
  1836  02C1  00C0               	movwf	(sprintf@fval+2)^(0+128)
  1837  02C2  0871               	movf	?___flneg+1,w
  1838  02C3  00BF               	movwf	(sprintf@fval+1)^(0+128)
  1839  02C4  0870               	movf	?___flneg,w
  1840  02C5  00BE               	movwf	sprintf@fval^(0+128)
  1841  02C6                     l3029:	
  1842                           
  1843                           ;C:\Program Files (x86)\Microchip\xc8\v2.10\pic\sources\c90\common\doprnt.c: 859:     fl
      +                          ag |= 0x03;
  1844  02C6  3003               	movlw	3
  1845  02C7  04AF               	iorwf	sprintf@flag^(0+128),f
  1846  02C8  3000               	movlw	0
  1847  02C9  04B0               	iorwf	(sprintf@flag+1)^(0+128),f
  1848  02CA                     l3031:	
  1849                           
  1850                           ;C:\Program Files (x86)\Microchip\xc8\v2.10\pic\sources\c90\common\doprnt.c: 861:    eex
      +                          p = 0;
  1851  02CA  1683               	bsf	3,5	;RP0=1, select bank1
  1852  02CB  1303               	bcf	3,6	;RP1=0, select bank1
  1853  02CC  01B7               	clrf	sprintf@eexp^(0+128)
  1854  02CD  01B8               	clrf	(sprintf@eexp+1)^(0+128)
  1855  02CE                     l3033:	
  1856                           
  1857                           ;C:\Program Files (x86)\Microchip\xc8\v2.10\pic\sources\c90\common\doprnt.c: 862:    if(
      +                           fval!=0) {
  1858  02CE  0841               	movf	(sprintf@fval+3)^(0+128),w
  1859  02CF  00F3               	movwf	___fleq@ff1+3
  1860  02D0  0840               	movf	(sprintf@fval+2)^(0+128),w
  1861  02D1  00F2               	movwf	___fleq@ff1+2
  1862  02D2  083F               	movf	(sprintf@fval+1)^(0+128),w
  1863  02D3  00F1               	movwf	___fleq@ff1+1
  1864  02D4  083E               	movf	sprintf@fval^(0+128),w
  1865  02D5  00F0               	movwf	___fleq@ff1
  1866  02D6  3000               	movlw	0
  1867  02D7  00F7               	movwf	___fleq@ff2+3
  1868  02D8  3000               	movlw	0
  1869  02D9  00F6               	movwf	___fleq@ff2+2
  1870  02DA  3000               	movlw	0
  1871  02DB  00F5               	movwf	___fleq@ff2+1
  1872  02DC  3000               	movlw	0
  1873  02DD  00F4               	movwf	___fleq@ff2
  1874  02DE  160A  158A  2568  120A  118A  	fcall	___fleq
  1875  02E3  1803               	btfsc	3,0
  1876  02E4  2AE6               	goto	u5271
  1877  02E5  2AE7               	goto	u5270
  1878  02E6                     u5271:	
  1879  02E6  2BD7               	goto	l3059
  1880  02E7                     u5270:	
  1881  02E7                     l3035:	
  1882                           
  1883                           ;C:\Program Files (x86)\Microchip\xc8\v2.10\pic\sources\c90\common\doprnt.c: 863:     (v
      +                          oid)(*(&eexp) = (unsigned char)((*(unsigned long *)&fval >> 23) & 255) - 126);
  1884  02E7  1003               	clrc
  1885  02E8  1683               	bsf	3,5	;RP0=1, select bank1
  1886  02E9  1303               	bcf	3,6	;RP1=0, select bank1
  1887  02EA  0D40               	rlf	(sprintf@fval+2)^(0+128),w
  1888  02EB  0D41               	rlf	(sprintf@fval+3)^(0+128),w
  1889  02EC  3E82               	addlw	130
  1890  02ED  00B7               	movwf	sprintf@eexp^(0+128)
  1891  02EE  30FF               	movlw	255
  1892  02EF  1803               	skipnc
  1893  02F0  3000               	movlw	0
  1894  02F1  00B8               	movwf	(sprintf@eexp^(0+128)+1)
  1895  02F2                     l3037:	
  1896                           
  1897                           ;C:\Program Files (x86)\Microchip\xc8\v2.10\pic\sources\c90\common\doprnt.c: 864:     ee
      +                          xp--;
  1898  02F2  30FF               	movlw	255
  1899  02F3  07B7               	addwf	sprintf@eexp^(0+128),f
  1900  02F4  1803               	skipnc
  1901  02F5  0AB8               	incf	(sprintf@eexp+1)^(0+128),f
  1902  02F6  30FF               	movlw	255
  1903  02F7  07B8               	addwf	(sprintf@eexp+1)^(0+128),f
  1904  02F8                     l3039:	
  1905                           
  1906                           ;C:\Program Files (x86)\Microchip\xc8\v2.10\pic\sources\c90\common\doprnt.c: 865:     ee
      +                          xp *= 3;
  1907  02F8  3003               	movlw	3
  1908  02F9  00F0               	movwf	___wmul@multiplier
  1909  02FA  3000               	movlw	0
  1910  02FB  00F1               	movwf	___wmul@multiplier+1
  1911  02FC  0838               	movf	(sprintf@eexp+1)^(0+128),w
  1912  02FD  00F3               	movwf	___wmul@multiplicand+1
  1913  02FE  0837               	movf	sprintf@eexp^(0+128),w
  1914  02FF  00F2               	movwf	___wmul@multiplicand
  1915  0300  160A  158A  241F  120A  118A  	fcall	___wmul
  1916  0305  0871               	movf	?___wmul+1,w
  1917  0306  1683               	bsf	3,5	;RP0=1, select bank1
  1918  0307  1303               	bcf	3,6	;RP1=0, select bank1
  1919  0308  00B8               	movwf	(sprintf@eexp+1)^(0+128)
  1920  0309  0870               	movf	?___wmul,w
  1921  030A  00B7               	movwf	sprintf@eexp^(0+128)
  1922  030B                     l3041:	
  1923                           
  1924                           ;C:\Program Files (x86)\Microchip\xc8\v2.10\pic\sources\c90\common\doprnt.c: 866:     ee
      +                          xp /= 10;
  1925  030B  300A               	movlw	10
  1926  030C  00F7               	movwf	___awdiv@divisor
  1927  030D  3000               	movlw	0
  1928  030E  00F8               	movwf	___awdiv@divisor+1
  1929  030F  0838               	movf	(sprintf@eexp+1)^(0+128),w
  1930  0310  00FA               	movwf	___awdiv@dividend+1
  1931  0311  0837               	movf	sprintf@eexp^(0+128),w
  1932  0312  00F9               	movwf	___awdiv@dividend
  1933  0313  160A  158A  271B  120A  118A  	fcall	___awdiv
  1934  0318  0878               	movf	?___awdiv+1,w
  1935  0319  1683               	bsf	3,5	;RP0=1, select bank1
  1936  031A  1303               	bcf	3,6	;RP1=0, select bank1
  1937  031B  00B8               	movwf	(sprintf@eexp+1)^(0+128)
  1938  031C  0877               	movf	?___awdiv,w
  1939  031D  00B7               	movwf	sprintf@eexp^(0+128)
  1940  031E                     l3043:	
  1941                           
  1942                           ;C:\Program Files (x86)\Microchip\xc8\v2.10\pic\sources\c90\common\doprnt.c: 867:     if
      +                          (eexp < 0)
  1943  031E  1FB8               	btfss	(sprintf@eexp+1)^(0+128),7
  1944  031F  2B21               	goto	u5281
  1945  0320  2B22               	goto	u5280
  1946  0321                     u5281:	
  1947  0321  2B28               	goto	l3047
  1948  0322                     u5280:	
  1949  0322                     l3045:	
  1950                           
  1951                           ;C:\Program Files (x86)\Microchip\xc8\v2.10\pic\sources\c90\common\doprnt.c: 868:      e
      +                          exp--;
  1952  0322  30FF               	movlw	255
  1953  0323  07B7               	addwf	sprintf@eexp^(0+128),f
  1954  0324  1803               	skipnc
  1955  0325  0AB8               	incf	(sprintf@eexp+1)^(0+128),f
  1956  0326  30FF               	movlw	255
  1957  0327  07B8               	addwf	(sprintf@eexp+1)^(0+128),f
  1958  0328                     l3047:	
  1959                           
  1960                           ;C:\Program Files (x86)\Microchip\xc8\v2.10\pic\sources\c90\common\doprnt.c: 872:     tm
      +                          pval.integ = scale(-eexp);
  1961  0328  0337               	decf	sprintf@eexp^(0+128),w
  1962  0329  3AFF               	xorlw	255
  1963  032A  120A  158A  2140  120A  118A  	fcall	_scale
  1964  032F  1283               	bcf	3,5	;RP0=0, select bank0
  1965  0330  1303               	bcf	3,6	;RP1=0, select bank0
  1966  0331  0841               	movf	?_scale+3,w
  1967  0332  1683               	bsf	3,5	;RP0=1, select bank1
  1968  0333  1303               	bcf	3,6	;RP1=0, select bank1
  1969  0334  00BC               	movwf	(sprintf@tmpval+3)^(0+128)
  1970  0335  1283               	bcf	3,5	;RP0=0, select bank0
  1971  0336  1303               	bcf	3,6	;RP1=0, select bank0
  1972  0337  0840               	movf	?_scale+2,w
  1973  0338  1683               	bsf	3,5	;RP0=1, select bank1
  1974  0339  1303               	bcf	3,6	;RP1=0, select bank1
  1975  033A  00BB               	movwf	(sprintf@tmpval+2)^(0+128)
  1976  033B  1283               	bcf	3,5	;RP0=0, select bank0
  1977  033C  1303               	bcf	3,6	;RP1=0, select bank0
  1978  033D  083F               	movf	?_scale+1,w
  1979  033E  1683               	bsf	3,5	;RP0=1, select bank1
  1980  033F  1303               	bcf	3,6	;RP1=0, select bank1
  1981  0340  00BA               	movwf	(sprintf@tmpval+1)^(0+128)
  1982  0341  1283               	bcf	3,5	;RP0=0, select bank0
  1983  0342  1303               	bcf	3,6	;RP1=0, select bank0
  1984  0343  083E               	movf	?_scale,w
  1985  0344  1683               	bsf	3,5	;RP0=1, select bank1
  1986  0345  1303               	bcf	3,6	;RP1=0, select bank1
  1987  0346  00B9               	movwf	sprintf@tmpval^(0+128)
  1988  0347                     l3049:	
  1989                           
  1990                           ;C:\Program Files (x86)\Microchip\xc8\v2.10\pic\sources\c90\common\doprnt.c: 873:     tm
      +                          pval.integ *= fval;
  1991  0347  0841               	movf	(sprintf@fval+3)^(0+128),w
  1992  0348  1283               	bcf	3,5	;RP0=0, select bank0
  1993  0349  1303               	bcf	3,6	;RP1=0, select bank0
  1994  034A  00A7               	movwf	___flmul@b+3
  1995  034B  1683               	bsf	3,5	;RP0=1, select bank1
  1996  034C  1303               	bcf	3,6	;RP1=0, select bank1
  1997  034D  0840               	movf	(sprintf@fval+2)^(0+128),w
  1998  034E  1283               	bcf	3,5	;RP0=0, select bank0
  1999  034F  1303               	bcf	3,6	;RP1=0, select bank0
  2000  0350  00A6               	movwf	___flmul@b+2
  2001  0351  1683               	bsf	3,5	;RP0=1, select bank1
  2002  0352  1303               	bcf	3,6	;RP1=0, select bank1
  2003  0353  083F               	movf	(sprintf@fval+1)^(0+128),w
  2004  0354  1283               	bcf	3,5	;RP0=0, select bank0
  2005  0355  1303               	bcf	3,6	;RP1=0, select bank0
  2006  0356  00A5               	movwf	___flmul@b+1
  2007  0357  1683               	bsf	3,5	;RP0=1, select bank1
  2008  0358  1303               	bcf	3,6	;RP1=0, select bank1
  2009  0359  083E               	movf	sprintf@fval^(0+128),w
  2010  035A  1283               	bcf	3,5	;RP0=0, select bank0
  2011  035B  1303               	bcf	3,6	;RP1=0, select bank0
  2012  035C  00A4               	movwf	___flmul@b
  2013  035D  1683               	bsf	3,5	;RP0=1, select bank1
  2014  035E  1303               	bcf	3,6	;RP1=0, select bank1
  2015  035F  083C               	movf	(sprintf@tmpval+3)^(0+128),w
  2016  0360  1283               	bcf	3,5	;RP0=0, select bank0
  2017  0361  1303               	bcf	3,6	;RP1=0, select bank0
  2018  0362  00AB               	movwf	___flmul@a+3
  2019  0363  1683               	bsf	3,5	;RP0=1, select bank1
  2020  0364  1303               	bcf	3,6	;RP1=0, select bank1
  2021  0365  083B               	movf	(sprintf@tmpval+2)^(0+128),w
  2022  0366  1283               	bcf	3,5	;RP0=0, select bank0
  2023  0367  1303               	bcf	3,6	;RP1=0, select bank0
  2024  0368  00AA               	movwf	___flmul@a+2
  2025  0369  1683               	bsf	3,5	;RP0=1, select bank1
  2026  036A  1303               	bcf	3,6	;RP1=0, select bank1
  2027  036B  083A               	movf	(sprintf@tmpval+1)^(0+128),w
  2028  036C  1283               	bcf	3,5	;RP0=0, select bank0
  2029  036D  1303               	bcf	3,6	;RP1=0, select bank0
  2030  036E  00A9               	movwf	___flmul@a+1
  2031  036F  1683               	bsf	3,5	;RP0=1, select bank1
  2032  0370  1303               	bcf	3,6	;RP1=0, select bank1
  2033  0371  0839               	movf	sprintf@tmpval^(0+128),w
  2034  0372  1283               	bcf	3,5	;RP0=0, select bank0
  2035  0373  1303               	bcf	3,6	;RP1=0, select bank0
  2036  0374  00A8               	movwf	___flmul@a
  2037  0375  120A  158A  249F  120A  118A  	fcall	___flmul
  2038  037A  1283               	bcf	3,5	;RP0=0, select bank0
  2039  037B  1303               	bcf	3,6	;RP1=0, select bank0
  2040  037C  0827               	movf	?___flmul+3,w
  2041  037D  1683               	bsf	3,5	;RP0=1, select bank1
  2042  037E  1303               	bcf	3,6	;RP1=0, select bank1
  2043  037F  00BC               	movwf	(sprintf@tmpval+3)^(0+128)
  2044  0380  1283               	bcf	3,5	;RP0=0, select bank0
  2045  0381  1303               	bcf	3,6	;RP1=0, select bank0
  2046  0382  0826               	movf	?___flmul+2,w
  2047  0383  1683               	bsf	3,5	;RP0=1, select bank1
  2048  0384  1303               	bcf	3,6	;RP1=0, select bank1
  2049  0385  00BB               	movwf	(sprintf@tmpval+2)^(0+128)
  2050  0386  1283               	bcf	3,5	;RP0=0, select bank0
  2051  0387  1303               	bcf	3,6	;RP1=0, select bank0
  2052  0388  0825               	movf	?___flmul+1,w
  2053  0389  1683               	bsf	3,5	;RP0=1, select bank1
  2054  038A  1303               	bcf	3,6	;RP1=0, select bank1
  2055  038B  00BA               	movwf	(sprintf@tmpval+1)^(0+128)
  2056  038C  1283               	bcf	3,5	;RP0=0, select bank0
  2057  038D  1303               	bcf	3,6	;RP1=0, select bank0
  2058  038E  0824               	movf	?___flmul,w
  2059  038F  1683               	bsf	3,5	;RP0=1, select bank1
  2060  0390  1303               	bcf	3,6	;RP1=0, select bank1
  2061  0391  00B9               	movwf	sprintf@tmpval^(0+128)
  2062  0392                     l3051:	
  2063                           
  2064                           ;C:\Program Files (x86)\Microchip\xc8\v2.10\pic\sources\c90\common\doprnt.c: 874:     if
      +                          (tmpval.integ < 1.0)
  2065  0392  083C               	movf	(sprintf@tmpval+3)^(0+128),w
  2066  0393  00F3               	movwf	___flge@ff1+3
  2067  0394  083B               	movf	(sprintf@tmpval+2)^(0+128),w
  2068  0395  00F2               	movwf	___flge@ff1+2
  2069  0396  083A               	movf	(sprintf@tmpval+1)^(0+128),w
  2070  0397  00F1               	movwf	___flge@ff1+1
  2071  0398  0839               	movf	sprintf@tmpval^(0+128),w
  2072  0399  00F0               	movwf	___flge@ff1
  2073  039A  303F               	movlw	63
  2074  039B  00F7               	movwf	___flge@ff2+3
  2075  039C  3080               	movlw	128
  2076  039D  00F6               	movwf	___flge@ff2+2
  2077  039E  3000               	movlw	0
  2078  039F  00F5               	movwf	___flge@ff2+1
  2079  03A0  3000               	movlw	0
  2080  03A1  00F4               	movwf	___flge@ff2
  2081  03A2  160A  118A  20C2  120A  118A  	fcall	___flge
  2082  03A7  1803               	btfsc	3,0
  2083  03A8  2BAA               	goto	u5291
  2084  03A9  2BAB               	goto	u5290
  2085  03AA                     u5291:	
  2086  03AA  2BB4               	goto	l3055
  2087  03AB                     u5290:	
  2088  03AB                     l3053:	
  2089                           
  2090                           ;C:\Program Files (x86)\Microchip\xc8\v2.10\pic\sources\c90\common\doprnt.c: 875:      e
      +                          exp--;
  2091  03AB  30FF               	movlw	255
  2092  03AC  1683               	bsf	3,5	;RP0=1, select bank1
  2093  03AD  1303               	bcf	3,6	;RP1=0, select bank1
  2094  03AE  07B7               	addwf	sprintf@eexp^(0+128),f
  2095  03AF  1803               	skipnc
  2096  03B0  0AB8               	incf	(sprintf@eexp+1)^(0+128),f
  2097  03B1  30FF               	movlw	255
  2098  03B2  07B8               	addwf	(sprintf@eexp+1)^(0+128),f
  2099  03B3  2BD7               	goto	l3059
  2100  03B4                     l3055:	
  2101  03B4  1683               	bsf	3,5	;RP0=1, select bank1
  2102  03B5  1303               	bcf	3,6	;RP1=0, select bank1
  2103  03B6  083C               	movf	(sprintf@tmpval+3)^(0+128),w
  2104  03B7  00F3               	movwf	___flge@ff1+3
  2105  03B8  083B               	movf	(sprintf@tmpval+2)^(0+128),w
  2106  03B9  00F2               	movwf	___flge@ff1+2
  2107  03BA  083A               	movf	(sprintf@tmpval+1)^(0+128),w
  2108  03BB  00F1               	movwf	___flge@ff1+1
  2109  03BC  0839               	movf	sprintf@tmpval^(0+128),w
  2110  03BD  00F0               	movwf	___flge@ff1
  2111  03BE  3041               	movlw	65
  2112  03BF  00F7               	movwf	___flge@ff2+3
  2113  03C0  3020               	movlw	32
  2114  03C1  00F6               	movwf	___flge@ff2+2
  2115  03C2  3000               	movlw	0
  2116  03C3  00F5               	movwf	___flge@ff2+1
  2117  03C4  3000               	movlw	0
  2118  03C5  00F4               	movwf	___flge@ff2
  2119  03C6  160A  118A  20C2  120A  118A  	fcall	___flge
  2120  03CB  1C03               	btfss	3,0
  2121  03CC  2BCE               	goto	u5301
  2122  03CD  2BCF               	goto	u5300
  2123  03CE                     u5301:	
  2124  03CE  2BD7               	goto	l3059
  2125  03CF                     u5300:	
  2126  03CF                     l3057:	
  2127                           
  2128                           ;C:\Program Files (x86)\Microchip\xc8\v2.10\pic\sources\c90\common\doprnt.c: 877:      e
      +                          exp++;
  2129  03CF  3001               	movlw	1
  2130  03D0  1683               	bsf	3,5	;RP0=1, select bank1
  2131  03D1  1303               	bcf	3,6	;RP1=0, select bank1
  2132  03D2  07B7               	addwf	sprintf@eexp^(0+128),f
  2133  03D3  1803               	skipnc
  2134  03D4  0AB8               	incf	(sprintf@eexp+1)^(0+128),f
  2135  03D5  3000               	movlw	0
  2136  03D6  07B8               	addwf	(sprintf@eexp+1)^(0+128),f
  2137  03D7                     l3059:	
  2138  03D7                     l3061:	
  2139                           ;C:\Program Files (x86)\Microchip\xc8\v2.10\pic\sources\c90\common\doprnt.c: 1138:      
      +                          if(prec <= 12)
  2140                           
  2141                           
  2142                           ;C:\Program Files (x86)\Microchip\xc8\v2.10\pic\sources\c90\common\doprnt.c: 1139:      
      +                           fval += fround((unsigned int)prec);
  2143  03D7  3006               	movlw	6
  2144  03D8  120A  118A  202E  120A  118A  	fcall	_fround
  2145  03DD  1283               	bcf	3,5	;RP0=0, select bank0
  2146  03DE  1303               	bcf	3,6	;RP1=0, select bank0
  2147  03DF  0841               	movf	?_fround+3,w
  2148  03E0  00D5               	movwf	___fladd@b+3
  2149  03E1  0840               	movf	?_fround+2,w
  2150  03E2  00D4               	movwf	___fladd@b+2
  2151  03E3  083F               	movf	?_fround+1,w
  2152  03E4  00D3               	movwf	___fladd@b+1
  2153  03E5  083E               	movf	?_fround,w
  2154  03E6  00D2               	movwf	___fladd@b
  2155  03E7  1683               	bsf	3,5	;RP0=1, select bank1
  2156  03E8  1303               	bcf	3,6	;RP1=0, select bank1
  2157  03E9  0841               	movf	(sprintf@fval+3)^(0+128),w
  2158  03EA  1283               	bcf	3,5	;RP0=0, select bank0
  2159  03EB  1303               	bcf	3,6	;RP1=0, select bank0
  2160  03EC  00D9               	movwf	___fladd@a+3
  2161  03ED  1683               	bsf	3,5	;RP0=1, select bank1
  2162  03EE  1303               	bcf	3,6	;RP1=0, select bank1
  2163  03EF  0840               	movf	(sprintf@fval+2)^(0+128),w
  2164  03F0  1283               	bcf	3,5	;RP0=0, select bank0
  2165  03F1  1303               	bcf	3,6	;RP1=0, select bank0
  2166  03F2  00D8               	movwf	___fladd@a+2
  2167  03F3  1683               	bsf	3,5	;RP0=1, select bank1
  2168  03F4  1303               	bcf	3,6	;RP1=0, select bank1
  2169  03F5  083F               	movf	(sprintf@fval+1)^(0+128),w
  2170  03F6  1283               	bcf	3,5	;RP0=0, select bank0
  2171  03F7  1303               	bcf	3,6	;RP1=0, select bank0
  2172  03F8  00D7               	movwf	___fladd@a+1
  2173  03F9  1683               	bsf	3,5	;RP0=1, select bank1
  2174  03FA  1303               	bcf	3,6	;RP1=0, select bank1
  2175  03FB  083E               	movf	sprintf@fval^(0+128),w
  2176  03FC  1283               	bcf	3,5	;RP0=0, select bank0
  2177  03FD  1303               	bcf	3,6	;RP1=0, select bank0
  2178  03FE  00D6               	movwf	___fladd@a
  2179  03FF  160A  118A  2578  120A  118A  	fcall	___fladd
  2180  0404  1283               	bcf	3,5	;RP0=0, select bank0
  2181  0405  1303               	bcf	3,6	;RP1=0, select bank0
  2182  0406  0855               	movf	?___fladd+3,w
  2183  0407  1683               	bsf	3,5	;RP0=1, select bank1
  2184  0408  1303               	bcf	3,6	;RP1=0, select bank1
  2185  0409  00C1               	movwf	(sprintf@fval+3)^(0+128)
  2186  040A  1283               	bcf	3,5	;RP0=0, select bank0
  2187  040B  1303               	bcf	3,6	;RP1=0, select bank0
  2188  040C  0854               	movf	?___fladd+2,w
  2189  040D  1683               	bsf	3,5	;RP0=1, select bank1
  2190  040E  1303               	bcf	3,6	;RP1=0, select bank1
  2191  040F  00C0               	movwf	(sprintf@fval+2)^(0+128)
  2192  0410  1283               	bcf	3,5	;RP0=0, select bank0
  2193  0411  1303               	bcf	3,6	;RP1=0, select bank0
  2194  0412  0853               	movf	?___fladd+1,w
  2195  0413  1683               	bsf	3,5	;RP0=1, select bank1
  2196  0414  1303               	bcf	3,6	;RP1=0, select bank1
  2197  0415  00BF               	movwf	(sprintf@fval+1)^(0+128)
  2198  0416  1283               	bcf	3,5	;RP0=0, select bank0
  2199  0417  1303               	bcf	3,6	;RP1=0, select bank0
  2200  0418  0852               	movf	?___fladd,w
  2201  0419  1683               	bsf	3,5	;RP0=1, select bank1
  2202  041A  1303               	bcf	3,6	;RP1=0, select bank1
  2203  041B  00BE               	movwf	sprintf@fval^(0+128)
  2204  041C                     l3063:	
  2205                           
  2206                           ;C:\Program Files (x86)\Microchip\xc8\v2.10\pic\sources\c90\common\doprnt.c: 1142:     i
      +                          f((eexp > 9)||(fval != 0 && (unsigned long)fval == 0 && eexp > 1)) {
  2207  041C  0838               	movf	(sprintf@eexp+1)^(0+128),w
  2208  041D  3A80               	xorlw	128
  2209  041E  00FF               	movwf	btemp+1
  2210  041F  3080               	movlw	128
  2211  0420  027F               	subwf	btemp+1,w
  2212  0421  1D03               	skipz
  2213  0422  2C25               	goto	u5315
  2214  0423  300A               	movlw	10
  2215  0424  0237               	subwf	sprintf@eexp^(0+128),w
  2216  0425                     u5315:	
  2217  0425  1803               	skipnc
  2218  0426  2C28               	goto	u5311
  2219  0427  2C29               	goto	u5310
  2220  0428                     u5311:	
  2221  0428  2C7A               	goto	l3071
  2222  0429                     u5310:	
  2223  0429                     l3065:	
  2224  0429  1683               	bsf	3,5	;RP0=1, select bank1
  2225  042A  1303               	bcf	3,6	;RP1=0, select bank1
  2226  042B  0841               	movf	(sprintf@fval+3)^(0+128),w
  2227  042C  00F3               	movwf	___fleq@ff1+3
  2228  042D  0840               	movf	(sprintf@fval+2)^(0+128),w
  2229  042E  00F2               	movwf	___fleq@ff1+2
  2230  042F  083F               	movf	(sprintf@fval+1)^(0+128),w
  2231  0430  00F1               	movwf	___fleq@ff1+1
  2232  0431  083E               	movf	sprintf@fval^(0+128),w
  2233  0432  00F0               	movwf	___fleq@ff1
  2234  0433  3000               	movlw	0
  2235  0434  00F7               	movwf	___fleq@ff2+3
  2236  0435  3000               	movlw	0
  2237  0436  00F6               	movwf	___fleq@ff2+2
  2238  0437  3000               	movlw	0
  2239  0438  00F5               	movwf	___fleq@ff2+1
  2240  0439  3000               	movlw	0
  2241  043A  00F4               	movwf	___fleq@ff2
  2242  043B  160A  158A  2568  120A  118A  	fcall	___fleq
  2243  0440  1803               	btfsc	3,0
  2244  0441  2C43               	goto	u5321
  2245  0442  2C44               	goto	u5320
  2246  0443                     u5321:	
  2247  0443  2CEC               	goto	l3085
  2248  0444                     u5320:	
  2249  0444                     l3067:	
  2250  0444  1683               	bsf	3,5	;RP0=1, select bank1
  2251  0445  1303               	bcf	3,6	;RP1=0, select bank1
  2252  0446  0841               	movf	(sprintf@fval+3)^(0+128),w
  2253  0447  1283               	bcf	3,5	;RP0=0, select bank0
  2254  0448  1303               	bcf	3,6	;RP1=0, select bank0
  2255  0449  00D4               	movwf	___fltol@f1+3
  2256  044A  1683               	bsf	3,5	;RP0=1, select bank1
  2257  044B  1303               	bcf	3,6	;RP1=0, select bank1
  2258  044C  0840               	movf	(sprintf@fval+2)^(0+128),w
  2259  044D  1283               	bcf	3,5	;RP0=0, select bank0
  2260  044E  1303               	bcf	3,6	;RP1=0, select bank0
  2261  044F  00D3               	movwf	___fltol@f1+2
  2262  0450  1683               	bsf	3,5	;RP0=1, select bank1
  2263  0451  1303               	bcf	3,6	;RP1=0, select bank1
  2264  0452  083F               	movf	(sprintf@fval+1)^(0+128),w
  2265  0453  1283               	bcf	3,5	;RP0=0, select bank0
  2266  0454  1303               	bcf	3,6	;RP1=0, select bank0
  2267  0455  00D2               	movwf	___fltol@f1+1
  2268  0456  1683               	bsf	3,5	;RP0=1, select bank1
  2269  0457  1303               	bcf	3,6	;RP1=0, select bank1
  2270  0458  083E               	movf	sprintf@fval^(0+128),w
  2271  0459  1283               	bcf	3,5	;RP0=0, select bank0
  2272  045A  1303               	bcf	3,6	;RP1=0, select bank0
  2273  045B  00D1               	movwf	___fltol@f1
  2274  045C  160A  158A  2784  120A  118A  	fcall	___fltol
  2275  0461  1283               	bcf	3,5	;RP0=0, select bank0
  2276  0462  1303               	bcf	3,6	;RP1=0, select bank0
  2277  0463  0854               	movf	?___fltol+3,w
  2278  0464  0453               	iorwf	?___fltol+2,w
  2279  0465  0452               	iorwf	?___fltol+1,w
  2280  0466  0451               	iorwf	?___fltol,w
  2281  0467  1D03               	skipz
  2282  0468  2C6A               	goto	u5331
  2283  0469  2C6B               	goto	u5330
  2284  046A                     u5331:	
  2285  046A  2CEC               	goto	l3085
  2286  046B                     u5330:	
  2287  046B                     l3069:	
  2288  046B  1683               	bsf	3,5	;RP0=1, select bank1
  2289  046C  1303               	bcf	3,6	;RP1=0, select bank1
  2290  046D  0838               	movf	(sprintf@eexp+1)^(0+128),w
  2291  046E  3A80               	xorlw	128
  2292  046F  00FF               	movwf	btemp+1
  2293  0470  3080               	movlw	128
  2294  0471  027F               	subwf	btemp+1,w
  2295  0472  1D03               	skipz
  2296  0473  2C76               	goto	u5345
  2297  0474  3002               	movlw	2
  2298  0475  0237               	subwf	sprintf@eexp^(0+128),w
  2299  0476                     u5345:	
  2300  0476  1C03               	skipc
  2301  0477  2C79               	goto	u5341
  2302  0478  2C7A               	goto	u5340
  2303  0479                     u5341:	
  2304  0479  2CEC               	goto	l3085
  2305  047A                     u5340:	
  2306  047A                     l3071:	
  2307                           
  2308                           ;C:\Program Files (x86)\Microchip\xc8\v2.10\pic\sources\c90\common\doprnt.c: 1146:      
      +                          if(tmpval.integ < 4.294967296){
  2309  047A  1683               	bsf	3,5	;RP0=1, select bank1
  2310  047B  1303               	bcf	3,6	;RP1=0, select bank1
  2311  047C  083C               	movf	(sprintf@tmpval+3)^(0+128),w
  2312  047D  00F3               	movwf	___flge@ff1+3
  2313  047E  083B               	movf	(sprintf@tmpval+2)^(0+128),w
  2314  047F  00F2               	movwf	___flge@ff1+2
  2315  0480  083A               	movf	(sprintf@tmpval+1)^(0+128),w
  2316  0481  00F1               	movwf	___flge@ff1+1
  2317  0482  0839               	movf	sprintf@tmpval^(0+128),w
  2318  0483  00F0               	movwf	___flge@ff1
  2319  0484  3040               	movlw	64
  2320  0485  00F7               	movwf	___flge@ff2+3
  2321  0486  3089               	movlw	137
  2322  0487  00F6               	movwf	___flge@ff2+2
  2323  0488  3070               	movlw	112
  2324  0489  00F5               	movwf	___flge@ff2+1
  2325  048A  305F               	movlw	95
  2326  048B  00F4               	movwf	___flge@ff2
  2327  048C  160A  118A  20C2  120A  118A  	fcall	___flge
  2328  0491  1803               	btfsc	3,0
  2329  0492  2C94               	goto	u5351
  2330  0493  2C95               	goto	u5350
  2331  0494                     u5351:	
  2332  0494  2C9E               	goto	l3075
  2333  0495                     u5350:	
  2334  0495                     l3073:	
  2335                           
  2336                           ;C:\Program Files (x86)\Microchip\xc8\v2.10\pic\sources\c90\common\doprnt.c: 1147:      
      +                           eexp -= (sizeof dpowers/sizeof dpowers[0])-1;
  2337  0495  30F7               	movlw	247
  2338  0496  1683               	bsf	3,5	;RP0=1, select bank1
  2339  0497  1303               	bcf	3,6	;RP1=0, select bank1
  2340  0498  07B7               	addwf	sprintf@eexp^(0+128),f
  2341  0499  1803               	skipnc
  2342  049A  0AB8               	incf	(sprintf@eexp+1)^(0+128),f
  2343  049B  30FF               	movlw	255
  2344  049C  07B8               	addwf	(sprintf@eexp+1)^(0+128),f
  2345                           
  2346                           ;C:\Program Files (x86)\Microchip\xc8\v2.10\pic\sources\c90\common\doprnt.c: 1148:      
      +                          }else{
  2347  049D  2CA6               	goto	l3077
  2348  049E                     l3075:	
  2349                           
  2350                           ;C:\Program Files (x86)\Microchip\xc8\v2.10\pic\sources\c90\common\doprnt.c: 1149:      
      +                           eexp -= (sizeof dpowers/sizeof dpowers[0])-2;
  2351  049E  30F8               	movlw	248
  2352  049F  1683               	bsf	3,5	;RP0=1, select bank1
  2353  04A0  1303               	bcf	3,6	;RP1=0, select bank1
  2354  04A1  07B7               	addwf	sprintf@eexp^(0+128),f
  2355  04A2  1803               	skipnc
  2356  04A3  0AB8               	incf	(sprintf@eexp+1)^(0+128),f
  2357  04A4  30FF               	movlw	255
  2358  04A5  07B8               	addwf	(sprintf@eexp+1)^(0+128),f
  2359  04A6                     l3077:	
  2360                           
  2361                           ;C:\Program Files (x86)\Microchip\xc8\v2.10\pic\sources\c90\common\doprnt.c: 1152:      
      +                          val = ((sizeof(double)== 3) ? _tdiv_to_l_(fval,tmpval.integ) : _div_to_l_(fval,tmpval.in
      +                          teg));
  2362  04A6  0837               	movf	sprintf@eexp^(0+128),w
  2363  04A7  120A  158A  2140  120A  118A  	fcall	_scale
  2364  04AC  1283               	bcf	3,5	;RP0=0, select bank0
  2365  04AD  1303               	bcf	3,6	;RP1=0, select bank0
  2366  04AE  0841               	movf	?_scale+3,w
  2367  04AF  1683               	bsf	3,5	;RP0=1, select bank1
  2368  04B0  1303               	bcf	3,6	;RP1=0, select bank1
  2369  04B1  00BC               	movwf	(sprintf@tmpval+3)^(0+128)
  2370  04B2  1283               	bcf	3,5	;RP0=0, select bank0
  2371  04B3  1303               	bcf	3,6	;RP1=0, select bank0
  2372  04B4  0840               	movf	?_scale+2,w
  2373  04B5  1683               	bsf	3,5	;RP0=1, select bank1
  2374  04B6  1303               	bcf	3,6	;RP1=0, select bank1
  2375  04B7  00BB               	movwf	(sprintf@tmpval+2)^(0+128)
  2376  04B8  1283               	bcf	3,5	;RP0=0, select bank0
  2377  04B9  1303               	bcf	3,6	;RP1=0, select bank0
  2378  04BA  083F               	movf	?_scale+1,w
  2379  04BB  1683               	bsf	3,5	;RP0=1, select bank1
  2380  04BC  1303               	bcf	3,6	;RP1=0, select bank1
  2381  04BD  00BA               	movwf	(sprintf@tmpval+1)^(0+128)
  2382  04BE  1283               	bcf	3,5	;RP0=0, select bank0
  2383  04BF  1303               	bcf	3,6	;RP1=0, select bank0
  2384  04C0  083E               	movf	?_scale,w
  2385  04C1  1683               	bsf	3,5	;RP0=1, select bank1
  2386  04C2  1303               	bcf	3,6	;RP1=0, select bank1
  2387  04C3  00B9               	movwf	sprintf@tmpval^(0+128)
  2388  04C4                     l3079:	
  2389  04C4  0841               	movf	(sprintf@fval+3)^(0+128),w
  2390  04C5  00F3               	movwf	__div_to_l_@f1+3
  2391  04C6  0840               	movf	(sprintf@fval+2)^(0+128),w
  2392  04C7  00F2               	movwf	__div_to_l_@f1+2
  2393  04C8  083F               	movf	(sprintf@fval+1)^(0+128),w
  2394  04C9  00F1               	movwf	__div_to_l_@f1+1
  2395  04CA  083E               	movf	sprintf@fval^(0+128),w
  2396  04CB  00F0               	movwf	__div_to_l_@f1
  2397  04CC  083C               	movf	(sprintf@tmpval+3)^(0+128),w
  2398  04CD  00F7               	movwf	__div_to_l_@f2+3
  2399  04CE  083B               	movf	(sprintf@tmpval+2)^(0+128),w
  2400  04CF  00F6               	movwf	__div_to_l_@f2+2
  2401  04D0  083A               	movf	(sprintf@tmpval+1)^(0+128),w
  2402  04D1  00F5               	movwf	__div_to_l_@f2+1
  2403  04D2  0839               	movf	sprintf@tmpval^(0+128),w
  2404  04D3  00F4               	movwf	__div_to_l_@f2
  2405  04D4  160A  118A  22DD  120A  118A  	fcall	__div_to_l_
  2406  04D9  0873               	movf	?__div_to_l_+3,w
  2407  04DA  1683               	bsf	3,5	;RP0=1, select bank1
  2408  04DB  1303               	bcf	3,6	;RP1=0, select bank1
  2409  04DC  00B6               	movwf	(sprintf@val+3)^(0+128)
  2410  04DD  0872               	movf	?__div_to_l_+2,w
  2411  04DE  00B5               	movwf	(sprintf@val+2)^(0+128)
  2412  04DF  0871               	movf	?__div_to_l_+1,w
  2413  04E0  00B4               	movwf	(sprintf@val+1)^(0+128)
  2414  04E1  0870               	movf	?__div_to_l_,w
  2415  04E2  00B3               	movwf	sprintf@val^(0+128)
  2416  04E3                     l3083:	
  2417                           
  2418                           ;C:\Program Files (x86)\Microchip\xc8\v2.10\pic\sources\c90\common\doprnt.c: 1155:      
      +                          fval = 0.0;
  2419  04E3  3000               	movlw	0
  2420  04E4  00C1               	movwf	(sprintf@fval+3)^(0+128)
  2421  04E5  3000               	movlw	0
  2422  04E6  00C0               	movwf	(sprintf@fval+2)^(0+128)
  2423  04E7  3000               	movlw	0
  2424  04E8  00BF               	movwf	(sprintf@fval+1)^(0+128)
  2425  04E9  3000               	movlw	0
  2426  04EA  00BE               	movwf	sprintf@fval^(0+128)
  2427                           
  2428                           ;C:\Program Files (x86)\Microchip\xc8\v2.10\pic\sources\c90\common\doprnt.c: 1156:     }
      +                           else {
  2429  04EB  2D70               	goto	l3091
  2430  04EC                     l3085:	
  2431                           
  2432                           ;C:\Program Files (x86)\Microchip\xc8\v2.10\pic\sources\c90\common\doprnt.c: 1157:      
      +                          val = (unsigned long)fval;
  2433  04EC  1683               	bsf	3,5	;RP0=1, select bank1
  2434  04ED  1303               	bcf	3,6	;RP1=0, select bank1
  2435  04EE  0841               	movf	(sprintf@fval+3)^(0+128),w
  2436  04EF  1283               	bcf	3,5	;RP0=0, select bank0
  2437  04F0  1303               	bcf	3,6	;RP1=0, select bank0
  2438  04F1  00D4               	movwf	___fltol@f1+3
  2439  04F2  1683               	bsf	3,5	;RP0=1, select bank1
  2440  04F3  1303               	bcf	3,6	;RP1=0, select bank1
  2441  04F4  0840               	movf	(sprintf@fval+2)^(0+128),w
  2442  04F5  1283               	bcf	3,5	;RP0=0, select bank0
  2443  04F6  1303               	bcf	3,6	;RP1=0, select bank0
  2444  04F7  00D3               	movwf	___fltol@f1+2
  2445  04F8  1683               	bsf	3,5	;RP0=1, select bank1
  2446  04F9  1303               	bcf	3,6	;RP1=0, select bank1
  2447  04FA  083F               	movf	(sprintf@fval+1)^(0+128),w
  2448  04FB  1283               	bcf	3,5	;RP0=0, select bank0
  2449  04FC  1303               	bcf	3,6	;RP1=0, select bank0
  2450  04FD  00D2               	movwf	___fltol@f1+1
  2451  04FE  1683               	bsf	3,5	;RP0=1, select bank1
  2452  04FF  1303               	bcf	3,6	;RP1=0, select bank1
  2453  0500  083E               	movf	sprintf@fval^(0+128),w
  2454  0501  1283               	bcf	3,5	;RP0=0, select bank0
  2455  0502  1303               	bcf	3,6	;RP1=0, select bank0
  2456  0503  00D1               	movwf	___fltol@f1
  2457  0504  160A  158A  2784  120A  118A  	fcall	___fltol
  2458  0509  1283               	bcf	3,5	;RP0=0, select bank0
  2459  050A  1303               	bcf	3,6	;RP1=0, select bank0
  2460  050B  0854               	movf	?___fltol+3,w
  2461  050C  1683               	bsf	3,5	;RP0=1, select bank1
  2462  050D  1303               	bcf	3,6	;RP1=0, select bank1
  2463  050E  00B6               	movwf	(sprintf@val+3)^(0+128)
  2464  050F  1283               	bcf	3,5	;RP0=0, select bank0
  2465  0510  1303               	bcf	3,6	;RP1=0, select bank0
  2466  0511  0853               	movf	?___fltol+2,w
  2467  0512  1683               	bsf	3,5	;RP0=1, select bank1
  2468  0513  1303               	bcf	3,6	;RP1=0, select bank1
  2469  0514  00B5               	movwf	(sprintf@val+2)^(0+128)
  2470  0515  1283               	bcf	3,5	;RP0=0, select bank0
  2471  0516  1303               	bcf	3,6	;RP1=0, select bank0
  2472  0517  0852               	movf	?___fltol+1,w
  2473  0518  1683               	bsf	3,5	;RP0=1, select bank1
  2474  0519  1303               	bcf	3,6	;RP1=0, select bank1
  2475  051A  00B4               	movwf	(sprintf@val+1)^(0+128)
  2476  051B  1283               	bcf	3,5	;RP0=0, select bank0
  2477  051C  1303               	bcf	3,6	;RP1=0, select bank0
  2478  051D  0851               	movf	?___fltol,w
  2479  051E  1683               	bsf	3,5	;RP0=1, select bank1
  2480  051F  1303               	bcf	3,6	;RP1=0, select bank1
  2481  0520  00B3               	movwf	sprintf@val^(0+128)
  2482  0521                     l3087:	
  2483                           
  2484                           ;C:\Program Files (x86)\Microchip\xc8\v2.10\pic\sources\c90\common\doprnt.c: 1158:      
      +                          fval -= (double)val;
  2485  0521  0836               	movf	(sprintf@val+3)^(0+128),w
  2486  0522  00F9               	movwf	___xxtofl@val+3
  2487  0523  0835               	movf	(sprintf@val+2)^(0+128),w
  2488  0524  00F8               	movwf	___xxtofl@val+2
  2489  0525  0834               	movf	(sprintf@val+1)^(0+128),w
  2490  0526  00F7               	movwf	___xxtofl@val+1
  2491  0527  0833               	movf	sprintf@val^(0+128),w
  2492  0528  00F6               	movwf	___xxtofl@val
  2493  0529  3000               	movlw	0
  2494  052A  160A  118A  2164  120A  118A  	fcall	___xxtofl
  2495  052F  0879               	movf	?___xxtofl+3,w
  2496  0530  1283               	bcf	3,5	;RP0=0, select bank0
  2497  0531  1303               	bcf	3,6	;RP1=0, select bank0
  2498  0532  00E9               	movwf	___flsub@a+3
  2499  0533  0878               	movf	?___xxtofl+2,w
  2500  0534  00E8               	movwf	___flsub@a+2
  2501  0535  0877               	movf	?___xxtofl+1,w
  2502  0536  00E7               	movwf	___flsub@a+1
  2503  0537  0876               	movf	?___xxtofl,w
  2504  0538  00E6               	movwf	___flsub@a
  2505  0539  1683               	bsf	3,5	;RP0=1, select bank1
  2506  053A  1303               	bcf	3,6	;RP1=0, select bank1
  2507  053B  0841               	movf	(sprintf@fval+3)^(0+128),w
  2508  053C  1283               	bcf	3,5	;RP0=0, select bank0
  2509  053D  1303               	bcf	3,6	;RP1=0, select bank0
  2510  053E  00ED               	movwf	___flsub@b+3
  2511  053F  1683               	bsf	3,5	;RP0=1, select bank1
  2512  0540  1303               	bcf	3,6	;RP1=0, select bank1
  2513  0541  0840               	movf	(sprintf@fval+2)^(0+128),w
  2514  0542  1283               	bcf	3,5	;RP0=0, select bank0
  2515  0543  1303               	bcf	3,6	;RP1=0, select bank0
  2516  0544  00EC               	movwf	___flsub@b+2
  2517  0545  1683               	bsf	3,5	;RP0=1, select bank1
  2518  0546  1303               	bcf	3,6	;RP1=0, select bank1
  2519  0547  083F               	movf	(sprintf@fval+1)^(0+128),w
  2520  0548  1283               	bcf	3,5	;RP0=0, select bank0
  2521  0549  1303               	bcf	3,6	;RP1=0, select bank0
  2522  054A  00EB               	movwf	___flsub@b+1
  2523  054B  1683               	bsf	3,5	;RP0=1, select bank1
  2524  054C  1303               	bcf	3,6	;RP1=0, select bank1
  2525  054D  083E               	movf	sprintf@fval^(0+128),w
  2526  054E  1283               	bcf	3,5	;RP0=0, select bank0
  2527  054F  1303               	bcf	3,6	;RP1=0, select bank0
  2528  0550  00EA               	movwf	___flsub@b
  2529  0551  160A  158A  23FB  120A  118A  	fcall	___flsub
  2530  0556  1283               	bcf	3,5	;RP0=0, select bank0
  2531  0557  1303               	bcf	3,6	;RP1=0, select bank0
  2532  0558  0869               	movf	?___flsub+3,w
  2533  0559  1683               	bsf	3,5	;RP0=1, select bank1
  2534  055A  1303               	bcf	3,6	;RP1=0, select bank1
  2535  055B  00C1               	movwf	(sprintf@fval+3)^(0+128)
  2536  055C  1283               	bcf	3,5	;RP0=0, select bank0
  2537  055D  1303               	bcf	3,6	;RP1=0, select bank0
  2538  055E  0868               	movf	?___flsub+2,w
  2539  055F  1683               	bsf	3,5	;RP0=1, select bank1
  2540  0560  1303               	bcf	3,6	;RP1=0, select bank1
  2541  0561  00C0               	movwf	(sprintf@fval+2)^(0+128)
  2542  0562  1283               	bcf	3,5	;RP0=0, select bank0
  2543  0563  1303               	bcf	3,6	;RP1=0, select bank0
  2544  0564  0867               	movf	?___flsub+1,w
  2545  0565  1683               	bsf	3,5	;RP0=1, select bank1
  2546  0566  1303               	bcf	3,6	;RP1=0, select bank1
  2547  0567  00BF               	movwf	(sprintf@fval+1)^(0+128)
  2548  0568  1283               	bcf	3,5	;RP0=0, select bank0
  2549  0569  1303               	bcf	3,6	;RP1=0, select bank0
  2550  056A  0866               	movf	?___flsub,w
  2551  056B  1683               	bsf	3,5	;RP0=1, select bank1
  2552  056C  1303               	bcf	3,6	;RP1=0, select bank1
  2553  056D  00BE               	movwf	sprintf@fval^(0+128)
  2554  056E                     l3089:	
  2555                           
  2556                           ;C:\Program Files (x86)\Microchip\xc8\v2.10\pic\sources\c90\common\doprnt.c: 1159:      
      +                          eexp = 0;
  2557  056E  01B7               	clrf	sprintf@eexp^(0+128)
  2558  056F  01B8               	clrf	(sprintf@eexp+1)^(0+128)
  2559  0570                     l3091:	
  2560                           
  2561                           ;C:\Program Files (x86)\Microchip\xc8\v2.10\pic\sources\c90\common\doprnt.c: 1162:     f
      +                          or(c = 1 ; c != (sizeof dpowers/sizeof dpowers[0]) ; c++)
  2562  0570  01C2               	clrf	sprintf@c^(0+128)
  2563  0571  0AC2               	incf	sprintf@c^(0+128),f
  2564  0572                     l3097:	
  2565                           
  2566                           ;C:\Program Files (x86)\Microchip\xc8\v2.10\pic\sources\c90\common\doprnt.c: 1163:      
      +                          if(val < dpowers[c])
  2567  0572  0842               	movf	sprintf@c^(0+128),w
  2568  0573  00A5               	movwf	??_sprintf^(0+128)
  2569  0574  3001               	movlw	1
  2570  0575                     u5365:	
  2571  0575  1003               	clrc
  2572  0576  0DA5               	rlf	??_sprintf^(0+128),f
  2573  0577  3EFF               	addlw	-1
  2574  0578  1D03               	skipz
  2575  0579  2D75               	goto	u5365
  2576  057A  1003               	clrc
  2577  057B  0D25               	rlf	??_sprintf^(0+128),w
  2578  057C  3E69               	addlw	low ((_dpowers-__stringbase)| (0+32768))
  2579  057D  0084               	movwf	4
  2580  057E  160A  118A  200A  120A  118A  	fcall	stringdir
  2581  0583  00A6               	movwf	(??_sprintf+1)^(0+128)
  2582  0584  160A  118A  200A  120A  118A  	fcall	stringdir
  2583  0589  00A7               	movwf	((??_sprintf+1)^(0+128)+1)
  2584  058A  160A  118A  200A  120A  118A  	fcall	stringdir
  2585  058F  00A8               	movwf	((??_sprintf+1)^(0+128)+2)
  2586  0590  160A  118A  200A  120A  118A  	fcall	stringdir
  2587  0595  00A9               	movwf	((??_sprintf+1)^(0+128)+3)
  2588  0596  0829               	movf	(??_sprintf+4)^(0+128),w
  2589  0597  0236               	subwf	(sprintf@val+3)^(0+128),w
  2590  0598  1D03               	skipz
  2591  0599  2DA4               	goto	u5375
  2592  059A  0828               	movf	(??_sprintf+3)^(0+128),w
  2593  059B  0235               	subwf	(sprintf@val+2)^(0+128),w
  2594  059C  1D03               	skipz
  2595  059D  2DA4               	goto	u5375
  2596  059E  0827               	movf	(??_sprintf+2)^(0+128),w
  2597  059F  0234               	subwf	(sprintf@val+1)^(0+128),w
  2598  05A0  1D03               	skipz
  2599  05A1  2DA4               	goto	u5375
  2600  05A2  0826               	movf	(??_sprintf+1)^(0+128),w
  2601  05A3  0233               	subwf	sprintf@val^(0+128),w
  2602  05A4                     u5375:	
  2603  05A4  1803               	skipnc
  2604  05A5  2DA7               	goto	u5371
  2605  05A6  2DA8               	goto	u5370
  2606  05A7                     u5371:	
  2607  05A7  2DA9               	goto	l3101
  2608  05A8                     u5370:	
  2609  05A8  2DB3               	goto	l3103
  2610  05A9                     l3101:	
  2611  05A9  3001               	movlw	1
  2612  05AA  00A5               	movwf	??_sprintf^(0+128)
  2613  05AB  0825               	movf	??_sprintf^(0+128),w
  2614  05AC  07C2               	addwf	sprintf@c^(0+128),f
  2615  05AD  300A               	movlw	10
  2616  05AE  0642               	xorwf	sprintf@c^(0+128),w
  2617  05AF  1D03               	btfss	3,2
  2618  05B0  2DB2               	goto	u5381
  2619  05B1  2DB3               	goto	u5380
  2620  05B2                     u5381:	
  2621  05B2  2D72               	goto	l3097
  2622  05B3                     u5380:	
  2623  05B3                     l3103:	
  2624                           
  2625                           ;C:\Program Files (x86)\Microchip\xc8\v2.10\pic\sources\c90\common\doprnt.c: 1201:     {
      +                          ;C:\Program Files (x86)\Microchip\xc8\v2.10\pic\sources\c90\common\doprnt.c: 1214:     i
      +                          f(flag & 0x03)
  2626  05B3  3003               	movlw	3
  2627  05B4  052F               	andwf	sprintf@flag^(0+128),w
  2628  05B5  00A5               	movwf	??_sprintf^(0+128)
  2629  05B6  3000               	movlw	0
  2630  05B7  0530               	andwf	(sprintf@flag+1)^(0+128),w
  2631  05B8  00A6               	movwf	(??_sprintf+1)^(0+128)
  2632  05B9  0825               	movf	??_sprintf^(0+128),w
  2633  05BA  0426               	iorwf	(??_sprintf^(0+128)+1),w
  2634  05BB  1903               	btfsc	3,2
  2635  05BC  2DBE               	goto	u5391
  2636  05BD  2DBF               	goto	u5390
  2637  05BE                     u5391:	
  2638  05BE  2E31               	goto	l242
  2639  05BF                     u5390:	
  2640  05BF                     l3105:	
  2641                           
  2642                           ;C:\Program Files (x86)\Microchip\xc8\v2.10\pic\sources\c90\common\doprnt.c: 1216:      
      +                          ((*sp++ = ('-')));
  2643  05BF  302D               	movlw	45
  2644  05C0  00A5               	movwf	??_sprintf^(0+128)
  2645  05C1  083D               	movf	sprintf@sp^(0+128),w
  2646  05C2  0084               	movwf	4
  2647  05C3  0825               	movf	??_sprintf^(0+128),w
  2648  05C4  1383               	bcf	3,7	;select IRP bank0
  2649  05C5  0080               	movwf	0
  2650  05C6                     l3107:	
  2651  05C6  3001               	movlw	1
  2652  05C7  00A5               	movwf	??_sprintf^(0+128)
  2653  05C8  0825               	movf	??_sprintf^(0+128),w
  2654  05C9  07BD               	addwf	sprintf@sp^(0+128),f
  2655  05CA  2E31               	goto	l242
  2656  05CB                     l3109:	
  2657                           
  2658                           ;C:\Program Files (x86)\Microchip\xc8\v2.10\pic\sources\c90\common\doprnt.c: 1226:     {
      +                          ;C:\Program Files (x86)\Microchip\xc8\v2.10\pic\sources\c90\common\doprnt.c: 1227:      
      +                          tmpval.vd = val/dpowers[c];
  2659  05CB  0842               	movf	sprintf@c^(0+128),w
  2660  05CC  00A5               	movwf	??_sprintf^(0+128)
  2661  05CD  3001               	movlw	1
  2662  05CE                     u5405:	
  2663  05CE  1003               	clrc
  2664  05CF  0DA5               	rlf	??_sprintf^(0+128),f
  2665  05D0  3EFF               	addlw	-1
  2666  05D1  1D03               	skipz
  2667  05D2  2DCE               	goto	u5405
  2668  05D3  1003               	clrc
  2669  05D4  0D25               	rlf	??_sprintf^(0+128),w
  2670  05D5  3E69               	addlw	low ((_dpowers-__stringbase)| (0+32768))
  2671  05D6  0084               	movwf	4
  2672  05D7  160A  118A  200A  120A  118A  	fcall	stringdir
  2673  05DC  00F0               	movwf	___lldiv@divisor
  2674  05DD  160A  118A  200A  120A  118A  	fcall	stringdir
  2675  05E2  00F1               	movwf	___lldiv@divisor+1
  2676  05E3  160A  118A  200A  120A  118A  	fcall	stringdir
  2677  05E8  00F2               	movwf	___lldiv@divisor+2
  2678  05E9  160A  118A  200A  120A  118A  	fcall	stringdir
  2679  05EE  00F3               	movwf	___lldiv@divisor+3
  2680  05EF  0836               	movf	(sprintf@val+3)^(0+128),w
  2681  05F0  00F7               	movwf	___lldiv@dividend+3
  2682  05F1  0835               	movf	(sprintf@val+2)^(0+128),w
  2683  05F2  00F6               	movwf	___lldiv@dividend+2
  2684  05F3  0834               	movf	(sprintf@val+1)^(0+128),w
  2685  05F4  00F5               	movwf	___lldiv@dividend+1
  2686  05F5  0833               	movf	sprintf@val^(0+128),w
  2687  05F6  00F4               	movwf	___lldiv@dividend
  2688  05F7  160A  158A  26B5  120A  118A  	fcall	___lldiv
  2689  05FC  0873               	movf	?___lldiv+3,w
  2690  05FD  1683               	bsf	3,5	;RP0=1, select bank1
  2691  05FE  1303               	bcf	3,6	;RP1=0, select bank1
  2692  05FF  00BC               	movwf	(sprintf@tmpval+3)^(0+128)
  2693  0600  0872               	movf	?___lldiv+2,w
  2694  0601  00BB               	movwf	(sprintf@tmpval+2)^(0+128)
  2695  0602  0871               	movf	?___lldiv+1,w
  2696  0603  00BA               	movwf	(sprintf@tmpval+1)^(0+128)
  2697  0604  0870               	movf	?___lldiv,w
  2698  0605  00B9               	movwf	sprintf@tmpval^(0+128)
  2699  0606                     l3111:	
  2700                           
  2701                           ;C:\Program Files (x86)\Microchip\xc8\v2.10\pic\sources\c90\common\doprnt.c: 1228:      
      +                          tmpval.vd %= 10;
  2702  0606  3000               	movlw	0
  2703  0607  00F3               	movwf	___llmod@divisor+3
  2704  0608  3000               	movlw	0
  2705  0609  00F2               	movwf	___llmod@divisor+2
  2706  060A  3000               	movlw	0
  2707  060B  00F1               	movwf	___llmod@divisor+1
  2708  060C  300A               	movlw	10
  2709  060D  00F0               	movwf	___llmod@divisor
  2710  060E  083C               	movf	(sprintf@tmpval+3)^(0+128),w
  2711  060F  00F7               	movwf	___llmod@dividend+3
  2712  0610  083B               	movf	(sprintf@tmpval+2)^(0+128),w
  2713  0611  00F6               	movwf	___llmod@dividend+2
  2714  0612  083A               	movf	(sprintf@tmpval+1)^(0+128),w
  2715  0613  00F5               	movwf	___llmod@dividend+1
  2716  0614  0839               	movf	sprintf@tmpval^(0+128),w
  2717  0615  00F4               	movwf	___llmod@dividend
  2718  0616  160A  158A  2608  120A  118A  	fcall	___llmod
  2719  061B  0873               	movf	?___llmod+3,w
  2720  061C  1683               	bsf	3,5	;RP0=1, select bank1
  2721  061D  1303               	bcf	3,6	;RP1=0, select bank1
  2722  061E  00BC               	movwf	(sprintf@tmpval+3)^(0+128)
  2723  061F  0872               	movf	?___llmod+2,w
  2724  0620  00BB               	movwf	(sprintf@tmpval+2)^(0+128)
  2725  0621  0871               	movf	?___llmod+1,w
  2726  0622  00BA               	movwf	(sprintf@tmpval+1)^(0+128)
  2727  0623  0870               	movf	?___llmod,w
  2728  0624  00B9               	movwf	sprintf@tmpval^(0+128)
  2729  0625                     l3113:	
  2730                           
  2731                           ;C:\Program Files (x86)\Microchip\xc8\v2.10\pic\sources\c90\common\doprnt.c: 1229:      
      +                          ((*sp++ = ('0' + tmpval.vd)));
  2732  0625  0839               	movf	sprintf@tmpval^(0+128),w
  2733  0626  3E30               	addlw	48
  2734  0627  00A5               	movwf	??_sprintf^(0+128)
  2735  0628  083D               	movf	sprintf@sp^(0+128),w
  2736  0629  0084               	movwf	4
  2737  062A  0825               	movf	??_sprintf^(0+128),w
  2738  062B  1383               	bcf	3,7	;select IRP bank0
  2739  062C  0080               	movwf	0
  2740  062D  3001               	movlw	1
  2741  062E  00A5               	movwf	??_sprintf^(0+128)
  2742  062F  0825               	movf	??_sprintf^(0+128),w
  2743  0630  07BD               	addwf	sprintf@sp^(0+128),f
  2744  0631                     l242:	
  2745                           ;C:\Program Files (x86)\Microchip\xc8\v2.10\pic\sources\c90\common\doprnt.c: 1230:     }
      +                          ;C:\Program Files (x86)\Microchip\xc8\v2.10\pic\sources\c90\common\doprnt.c: 1232:    }
  2746                           
  2747                           
  2748                           ;C:\Program Files (x86)\Microchip\xc8\v2.10\pic\sources\c90\common\doprnt.c: 1222:    wh
      +                          ile(c--) {
  2749  0631  3001               	movlw	1
  2750  0632  02C2               	subwf	sprintf@c^(0+128),f
  2751  0633  0A42               	incf	sprintf@c^(0+128),w
  2752  0634  1D03               	btfss	3,2
  2753  0635  2E37               	goto	u5411
  2754  0636  2E38               	goto	u5410
  2755  0637                     u5411:	
  2756  0637  2DCB               	goto	l3109
  2757  0638                     u5410:	
  2758  0638  2E4C               	goto	l3121
  2759  0639                     l3115:	
  2760                           
  2761                           ;C:\Program Files (x86)\Microchip\xc8\v2.10\pic\sources\c90\common\doprnt.c: 1234:     (
      +                          (*sp++ = ('0')));
  2762  0639  3030               	movlw	48
  2763  063A  1683               	bsf	3,5	;RP0=1, select bank1
  2764  063B  1303               	bcf	3,6	;RP1=0, select bank1
  2765  063C  00A5               	movwf	??_sprintf^(0+128)
  2766  063D  083D               	movf	sprintf@sp^(0+128),w
  2767  063E  0084               	movwf	4
  2768  063F  0825               	movf	??_sprintf^(0+128),w
  2769  0640  1383               	bcf	3,7	;select IRP bank0
  2770  0641  0080               	movwf	0
  2771  0642                     l3117:	
  2772  0642  3001               	movlw	1
  2773  0643  00A5               	movwf	??_sprintf^(0+128)
  2774  0644  0825               	movf	??_sprintf^(0+128),w
  2775  0645  07BD               	addwf	sprintf@sp^(0+128),f
  2776  0646                     l3119:	
  2777                           
  2778                           ;C:\Program Files (x86)\Microchip\xc8\v2.10\pic\sources\c90\common\doprnt.c: 1235:     e
      +                          exp--;
  2779  0646  30FF               	movlw	255
  2780  0647  07B7               	addwf	sprintf@eexp^(0+128),f
  2781  0648  1803               	skipnc
  2782  0649  0AB8               	incf	(sprintf@eexp+1)^(0+128),f
  2783  064A  30FF               	movlw	255
  2784  064B  07B8               	addwf	(sprintf@eexp+1)^(0+128),f
  2785  064C                     l3121:	
  2786                           
  2787                           ;C:\Program Files (x86)\Microchip\xc8\v2.10\pic\sources\c90\common\doprnt.c: 1233:    wh
      +                          ile(eexp > 0) {
  2788  064C  0838               	movf	(sprintf@eexp+1)^(0+128),w
  2789  064D  3A80               	xorlw	128
  2790  064E  00FF               	movwf	btemp+1
  2791  064F  3080               	movlw	128
  2792  0650  027F               	subwf	btemp+1,w
  2793  0651  1D03               	skipz
  2794  0652  2E55               	goto	u5425
  2795  0653  3001               	movlw	1
  2796  0654  0237               	subwf	sprintf@eexp^(0+128),w
  2797  0655                     u5425:	
  2798  0655  1803               	skipnc
  2799  0656  2E58               	goto	u5421
  2800  0657  2E59               	goto	u5420
  2801  0658                     u5421:	
  2802  0658  2E39               	goto	l3115
  2803  0659                     u5420:	
  2804  0659                     l3123:	
  2805                           
  2806                           ;C:\Program Files (x86)\Microchip\xc8\v2.10\pic\sources\c90\common\doprnt.c: 1237:    if
      +                          (prec > (int)((sizeof dpowers/sizeof dpowers[0])-2))
  2807  0659  1683               	bsf	3,5	;RP0=1, select bank1
  2808  065A  1303               	bcf	3,6	;RP1=0, select bank1
  2809  065B  0832               	movf	(sprintf@prec+1)^(0+128),w
  2810  065C  3A80               	xorlw	128
  2811  065D  00FF               	movwf	btemp+1
  2812  065E  3080               	movlw	128
  2813  065F  027F               	subwf	btemp+1,w
  2814  0660  1D03               	skipz
  2815  0661  2E64               	goto	u5435
  2816  0662  3009               	movlw	9
  2817  0663  0231               	subwf	sprintf@prec^(0+128),w
  2818  0664                     u5435:	
  2819  0664  1C03               	skipc
  2820  0665  2E67               	goto	u5431
  2821  0666  2E68               	goto	u5430
  2822  0667                     u5431:	
  2823  0667  2E6F               	goto	l3127
  2824  0668                     u5430:	
  2825  0668                     l3125:	
  2826                           
  2827                           ;C:\Program Files (x86)\Microchip\xc8\v2.10\pic\sources\c90\common\doprnt.c: 1238:     c
      +                           = (sizeof dpowers/sizeof dpowers[0])-2;
  2828  0668  3008               	movlw	8
  2829  0669  1683               	bsf	3,5	;RP0=1, select bank1
  2830  066A  1303               	bcf	3,6	;RP1=0, select bank1
  2831  066B  00A5               	movwf	??_sprintf^(0+128)
  2832  066C  0825               	movf	??_sprintf^(0+128),w
  2833  066D  00C2               	movwf	sprintf@c^(0+128)
  2834  066E  2E75               	goto	l249
  2835  066F                     l3127:	
  2836                           
  2837                           ;C:\Program Files (x86)\Microchip\xc8\v2.10\pic\sources\c90\common\doprnt.c: 1240:     c
      +                           = (char)prec;
  2838  066F  1683               	bsf	3,5	;RP0=1, select bank1
  2839  0670  1303               	bcf	3,6	;RP1=0, select bank1
  2840  0671  0831               	movf	sprintf@prec^(0+128),w
  2841  0672  00A5               	movwf	??_sprintf^(0+128)
  2842  0673  0825               	movf	??_sprintf^(0+128),w
  2843  0674  00C2               	movwf	sprintf@c^(0+128)
  2844  0675                     l249:	
  2845                           
  2846                           ;C:\Program Files (x86)\Microchip\xc8\v2.10\pic\sources\c90\common\doprnt.c: 1241:    pr
      +                          ec -= (int)c;
  2847  0675  0842               	movf	sprintf@c^(0+128),w
  2848  0676  00A5               	movwf	??_sprintf^(0+128)
  2849  0677  01A6               	clrf	(??_sprintf^(0+128)+1)
  2850  0678  0825               	movf	??_sprintf^(0+128),w
  2851  0679  02B1               	subwf	sprintf@prec^(0+128),f
  2852  067A  0826               	movf	(??_sprintf+1)^(0+128),w
  2853  067B  1C03               	skipc
  2854  067C  03B2               	decf	(sprintf@prec+1)^(0+128),f
  2855  067D  02B2               	subwf	(sprintf@prec+1)^(0+128),f
  2856  067E                     l3129:	
  2857                           
  2858                           ;C:\Program Files (x86)\Microchip\xc8\v2.10\pic\sources\c90\common\doprnt.c: 1245:    if
      +                          (c)
  2859  067E  0842               	movf	sprintf@c^(0+128),w
  2860  067F  1903               	btfsc	3,2
  2861  0680  2E82               	goto	u5441
  2862  0681  2E83               	goto	u5440
  2863  0682                     u5441:	
  2864  0682  2E8E               	goto	l3135
  2865  0683                     u5440:	
  2866  0683                     l3131:	
  2867                           
  2868                           ;C:\Program Files (x86)\Microchip\xc8\v2.10\pic\sources\c90\common\doprnt.c: 1247:     (
      +                          (*sp++ = ('.')));
  2869  0683  302E               	movlw	46
  2870  0684  00A5               	movwf	??_sprintf^(0+128)
  2871  0685  083D               	movf	sprintf@sp^(0+128),w
  2872  0686  0084               	movwf	4
  2873  0687  0825               	movf	??_sprintf^(0+128),w
  2874  0688  1383               	bcf	3,7	;select IRP bank0
  2875  0689  0080               	movwf	0
  2876  068A                     l3133:	
  2877  068A  3001               	movlw	1
  2878  068B  00A5               	movwf	??_sprintf^(0+128)
  2879  068C  0825               	movf	??_sprintf^(0+128),w
  2880  068D  07BD               	addwf	sprintf@sp^(0+128),f
  2881  068E                     l3135:	
  2882                           
  2883                           ;C:\Program Files (x86)\Microchip\xc8\v2.10\pic\sources\c90\common\doprnt.c: 1253:    va
      +                          l = (unsigned long)(fval * scale((signed char)c));
  2884  068E  0842               	movf	sprintf@c^(0+128),w
  2885  068F  120A  158A  2140  120A  118A  	fcall	_scale
  2886  0694  1283               	bcf	3,5	;RP0=0, select bank0
  2887  0695  1303               	bcf	3,6	;RP1=0, select bank0
  2888  0696  0841               	movf	?_scale+3,w
  2889  0697  1683               	bsf	3,5	;RP0=1, select bank1
  2890  0698  1303               	bcf	3,6	;RP1=0, select bank1
  2891  0699  00AD               	movwf	(_sprintf$780+3)^(0+128)
  2892  069A  1283               	bcf	3,5	;RP0=0, select bank0
  2893  069B  1303               	bcf	3,6	;RP1=0, select bank0
  2894  069C  0840               	movf	?_scale+2,w
  2895  069D  1683               	bsf	3,5	;RP0=1, select bank1
  2896  069E  1303               	bcf	3,6	;RP1=0, select bank1
  2897  069F  00AC               	movwf	(_sprintf$780+2)^(0+128)
  2898  06A0  1283               	bcf	3,5	;RP0=0, select bank0
  2899  06A1  1303               	bcf	3,6	;RP1=0, select bank0
  2900  06A2  083F               	movf	?_scale+1,w
  2901  06A3  1683               	bsf	3,5	;RP0=1, select bank1
  2902  06A4  1303               	bcf	3,6	;RP1=0, select bank1
  2903  06A5  00AB               	movwf	(_sprintf$780+1)^(0+128)
  2904  06A6  1283               	bcf	3,5	;RP0=0, select bank0
  2905  06A7  1303               	bcf	3,6	;RP1=0, select bank0
  2906  06A8  083E               	movf	?_scale,w
  2907  06A9  1683               	bsf	3,5	;RP0=1, select bank1
  2908  06AA  1303               	bcf	3,6	;RP1=0, select bank1
  2909  06AB  00AA               	movwf	_sprintf$780^(0+128)
  2910  06AC                     l3137:	
  2911                           
  2912                           ;C:\Program Files (x86)\Microchip\xc8\v2.10\pic\sources\c90\common\doprnt.c: 1253:    va
      +                          l = (unsigned long)(fval * scale((signed char)c));
  2913  06AC  082D               	movf	(_sprintf$780+3)^(0+128),w
  2914  06AD  1283               	bcf	3,5	;RP0=0, select bank0
  2915  06AE  1303               	bcf	3,6	;RP1=0, select bank0
  2916  06AF  00AB               	movwf	___flmul@a+3
  2917  06B0  1683               	bsf	3,5	;RP0=1, select bank1
  2918  06B1  1303               	bcf	3,6	;RP1=0, select bank1
  2919  06B2  082C               	movf	(_sprintf$780+2)^(0+128),w
  2920  06B3  1283               	bcf	3,5	;RP0=0, select bank0
  2921  06B4  1303               	bcf	3,6	;RP1=0, select bank0
  2922  06B5  00AA               	movwf	___flmul@a+2
  2923  06B6  1683               	bsf	3,5	;RP0=1, select bank1
  2924  06B7  1303               	bcf	3,6	;RP1=0, select bank1
  2925  06B8  082B               	movf	(_sprintf$780+1)^(0+128),w
  2926  06B9  1283               	bcf	3,5	;RP0=0, select bank0
  2927  06BA  1303               	bcf	3,6	;RP1=0, select bank0
  2928  06BB  00A9               	movwf	___flmul@a+1
  2929  06BC  1683               	bsf	3,5	;RP0=1, select bank1
  2930  06BD  1303               	bcf	3,6	;RP1=0, select bank1
  2931  06BE  082A               	movf	_sprintf$780^(0+128),w
  2932  06BF  1283               	bcf	3,5	;RP0=0, select bank0
  2933  06C0  1303               	bcf	3,6	;RP1=0, select bank0
  2934  06C1  00A8               	movwf	___flmul@a
  2935  06C2  1683               	bsf	3,5	;RP0=1, select bank1
  2936  06C3  1303               	bcf	3,6	;RP1=0, select bank1
  2937  06C4  0841               	movf	(sprintf@fval+3)^(0+128),w
  2938  06C5  1283               	bcf	3,5	;RP0=0, select bank0
  2939  06C6  1303               	bcf	3,6	;RP1=0, select bank0
  2940  06C7  00A7               	movwf	___flmul@b+3
  2941  06C8  1683               	bsf	3,5	;RP0=1, select bank1
  2942  06C9  1303               	bcf	3,6	;RP1=0, select bank1
  2943  06CA  0840               	movf	(sprintf@fval+2)^(0+128),w
  2944  06CB  1283               	bcf	3,5	;RP0=0, select bank0
  2945  06CC  1303               	bcf	3,6	;RP1=0, select bank0
  2946  06CD  00A6               	movwf	___flmul@b+2
  2947  06CE  1683               	bsf	3,5	;RP0=1, select bank1
  2948  06CF  1303               	bcf	3,6	;RP1=0, select bank1
  2949  06D0  083F               	movf	(sprintf@fval+1)^(0+128),w
  2950  06D1  1283               	bcf	3,5	;RP0=0, select bank0
  2951  06D2  1303               	bcf	3,6	;RP1=0, select bank0
  2952  06D3  00A5               	movwf	___flmul@b+1
  2953  06D4  1683               	bsf	3,5	;RP0=1, select bank1
  2954  06D5  1303               	bcf	3,6	;RP1=0, select bank1
  2955  06D6  083E               	movf	sprintf@fval^(0+128),w
  2956  06D7  1283               	bcf	3,5	;RP0=0, select bank0
  2957  06D8  1303               	bcf	3,6	;RP1=0, select bank0
  2958  06D9  00A4               	movwf	___flmul@b
  2959  06DA  120A  158A  249F  120A  118A  	fcall	___flmul
  2960  06DF  1283               	bcf	3,5	;RP0=0, select bank0
  2961  06E0  1303               	bcf	3,6	;RP1=0, select bank0
  2962  06E1  0827               	movf	?___flmul+3,w
  2963  06E2  00D4               	movwf	___fltol@f1+3
  2964  06E3  0826               	movf	?___flmul+2,w
  2965  06E4  00D3               	movwf	___fltol@f1+2
  2966  06E5  0825               	movf	?___flmul+1,w
  2967  06E6  00D2               	movwf	___fltol@f1+1
  2968  06E7  0824               	movf	?___flmul,w
  2969  06E8  00D1               	movwf	___fltol@f1
  2970  06E9  160A  158A  2784  120A  118A  	fcall	___fltol
  2971  06EE  1283               	bcf	3,5	;RP0=0, select bank0
  2972  06EF  1303               	bcf	3,6	;RP1=0, select bank0
  2973  06F0  0854               	movf	?___fltol+3,w
  2974  06F1  1683               	bsf	3,5	;RP0=1, select bank1
  2975  06F2  1303               	bcf	3,6	;RP1=0, select bank1
  2976  06F3  00B6               	movwf	(sprintf@val+3)^(0+128)
  2977  06F4  1283               	bcf	3,5	;RP0=0, select bank0
  2978  06F5  1303               	bcf	3,6	;RP1=0, select bank0
  2979  06F6  0853               	movf	?___fltol+2,w
  2980  06F7  1683               	bsf	3,5	;RP0=1, select bank1
  2981  06F8  1303               	bcf	3,6	;RP1=0, select bank1
  2982  06F9  00B5               	movwf	(sprintf@val+2)^(0+128)
  2983  06FA  1283               	bcf	3,5	;RP0=0, select bank0
  2984  06FB  1303               	bcf	3,6	;RP1=0, select bank0
  2985  06FC  0852               	movf	?___fltol+1,w
  2986  06FD  1683               	bsf	3,5	;RP0=1, select bank1
  2987  06FE  1303               	bcf	3,6	;RP1=0, select bank1
  2988  06FF  00B4               	movwf	(sprintf@val+1)^(0+128)
  2989  0700  1283               	bcf	3,5	;RP0=0, select bank0
  2990  0701  1303               	bcf	3,6	;RP1=0, select bank0
  2991  0702  0851               	movf	?___fltol,w
  2992  0703  1683               	bsf	3,5	;RP0=1, select bank1
  2993  0704  1303               	bcf	3,6	;RP1=0, select bank1
  2994  0705  00B3               	movwf	sprintf@val^(0+128)
  2995                           
  2996                           ;C:\Program Files (x86)\Microchip\xc8\v2.10\pic\sources\c90\common\doprnt.c: 1254:    wh
      +                          ile(c--) {
  2997  0706  2FA8               	goto	l3147
  2998  0707                     l3139:	
  2999                           
  3000                           ;C:\Program Files (x86)\Microchip\xc8\v2.10\pic\sources\c90\common\doprnt.c: 1255:     t
      +                          mpval.vd = val/dpowers[c];
  3001  0707  0842               	movf	sprintf@c^(0+128),w
  3002  0708  00A5               	movwf	??_sprintf^(0+128)
  3003  0709  3001               	movlw	1
  3004  070A                     u5455:	
  3005  070A  1003               	clrc
  3006  070B  0DA5               	rlf	??_sprintf^(0+128),f
  3007  070C  3EFF               	addlw	-1
  3008  070D  1D03               	skipz
  3009  070E  2F0A               	goto	u5455
  3010  070F  1003               	clrc
  3011  0710  0D25               	rlf	??_sprintf^(0+128),w
  3012  0711  3E69               	addlw	low ((_dpowers-__stringbase)| (0+32768))
  3013  0712  0084               	movwf	4
  3014  0713  160A  118A  200A  120A  118A  	fcall	stringdir
  3015  0718  00F0               	movwf	___lldiv@divisor
  3016  0719  160A  118A  200A  120A  118A  	fcall	stringdir
  3017  071E  00F1               	movwf	___lldiv@divisor+1
  3018  071F  160A  118A  200A  120A  118A  	fcall	stringdir
  3019  0724  00F2               	movwf	___lldiv@divisor+2
  3020  0725  160A  118A  200A  120A  118A  	fcall	stringdir
  3021  072A  00F3               	movwf	___lldiv@divisor+3
  3022  072B  0836               	movf	(sprintf@val+3)^(0+128),w
  3023  072C  00F7               	movwf	___lldiv@dividend+3
  3024  072D  0835               	movf	(sprintf@val+2)^(0+128),w
  3025  072E  00F6               	movwf	___lldiv@dividend+2
  3026  072F  0834               	movf	(sprintf@val+1)^(0+128),w
  3027  0730  00F5               	movwf	___lldiv@dividend+1
  3028  0731  0833               	movf	sprintf@val^(0+128),w
  3029  0732  00F4               	movwf	___lldiv@dividend
  3030  0733  160A  158A  26B5  120A  118A  	fcall	___lldiv
  3031  0738  0873               	movf	?___lldiv+3,w
  3032  0739  1683               	bsf	3,5	;RP0=1, select bank1
  3033  073A  1303               	bcf	3,6	;RP1=0, select bank1
  3034  073B  00BC               	movwf	(sprintf@tmpval+3)^(0+128)
  3035  073C  0872               	movf	?___lldiv+2,w
  3036  073D  00BB               	movwf	(sprintf@tmpval+2)^(0+128)
  3037  073E  0871               	movf	?___lldiv+1,w
  3038  073F  00BA               	movwf	(sprintf@tmpval+1)^(0+128)
  3039  0740  0870               	movf	?___lldiv,w
  3040  0741  00B9               	movwf	sprintf@tmpval^(0+128)
  3041  0742                     l3141:	
  3042                           
  3043                           ;C:\Program Files (x86)\Microchip\xc8\v2.10\pic\sources\c90\common\doprnt.c: 1256:     t
      +                          mpval.vd %= 10;
  3044  0742  3000               	movlw	0
  3045  0743  00F3               	movwf	___llmod@divisor+3
  3046  0744  3000               	movlw	0
  3047  0745  00F2               	movwf	___llmod@divisor+2
  3048  0746  3000               	movlw	0
  3049  0747  00F1               	movwf	___llmod@divisor+1
  3050  0748  300A               	movlw	10
  3051  0749  00F0               	movwf	___llmod@divisor
  3052  074A  083C               	movf	(sprintf@tmpval+3)^(0+128),w
  3053  074B  00F7               	movwf	___llmod@dividend+3
  3054  074C  083B               	movf	(sprintf@tmpval+2)^(0+128),w
  3055  074D  00F6               	movwf	___llmod@dividend+2
  3056  074E  083A               	movf	(sprintf@tmpval+1)^(0+128),w
  3057  074F  00F5               	movwf	___llmod@dividend+1
  3058  0750  0839               	movf	sprintf@tmpval^(0+128),w
  3059  0751  00F4               	movwf	___llmod@dividend
  3060  0752  160A  158A  2608  120A  118A  	fcall	___llmod
  3061  0757  0873               	movf	?___llmod+3,w
  3062  0758  1683               	bsf	3,5	;RP0=1, select bank1
  3063  0759  1303               	bcf	3,6	;RP1=0, select bank1
  3064  075A  00BC               	movwf	(sprintf@tmpval+3)^(0+128)
  3065  075B  0872               	movf	?___llmod+2,w
  3066  075C  00BB               	movwf	(sprintf@tmpval+2)^(0+128)
  3067  075D  0871               	movf	?___llmod+1,w
  3068  075E  00BA               	movwf	(sprintf@tmpval+1)^(0+128)
  3069  075F  0870               	movf	?___llmod,w
  3070  0760  00B9               	movwf	sprintf@tmpval^(0+128)
  3071  0761                     l3143:	
  3072                           
  3073                           ;C:\Program Files (x86)\Microchip\xc8\v2.10\pic\sources\c90\common\doprnt.c: 1257:     (
      +                          (*sp++ = ('0' + tmpval.vd)));
  3074  0761  0839               	movf	sprintf@tmpval^(0+128),w
  3075  0762  3E30               	addlw	48
  3076  0763  00A5               	movwf	??_sprintf^(0+128)
  3077  0764  083D               	movf	sprintf@sp^(0+128),w
  3078  0765  0084               	movwf	4
  3079  0766  0825               	movf	??_sprintf^(0+128),w
  3080  0767  1383               	bcf	3,7	;select IRP bank0
  3081  0768  0080               	movwf	0
  3082  0769  3001               	movlw	1
  3083  076A  00A5               	movwf	??_sprintf^(0+128)
  3084  076B  0825               	movf	??_sprintf^(0+128),w
  3085  076C  07BD               	addwf	sprintf@sp^(0+128),f
  3086  076D                     l3145:	
  3087                           
  3088                           ;C:\Program Files (x86)\Microchip\xc8\v2.10\pic\sources\c90\common\doprnt.c: 1258:     v
      +                          al %= dpowers[c];
  3089  076D  0842               	movf	sprintf@c^(0+128),w
  3090  076E  00A5               	movwf	??_sprintf^(0+128)
  3091  076F  3001               	movlw	1
  3092  0770                     u5465:	
  3093  0770  1003               	clrc
  3094  0771  0DA5               	rlf	??_sprintf^(0+128),f
  3095  0772  3EFF               	addlw	-1
  3096  0773  1D03               	skipz
  3097  0774  2F70               	goto	u5465
  3098  0775  1003               	clrc
  3099  0776  0D25               	rlf	??_sprintf^(0+128),w
  3100  0777  3E69               	addlw	low ((_dpowers-__stringbase)| (0+32768))
  3101  0778  0084               	movwf	4
  3102  0779  160A  118A  200A  120A  118A  	fcall	stringdir
  3103  077E  00F0               	movwf	___llmod@divisor
  3104  077F  160A  118A  200A  120A  118A  	fcall	stringdir
  3105  0784  00F1               	movwf	___llmod@divisor+1
  3106  0785  160A  118A  200A  120A  118A  	fcall	stringdir
  3107  078A  00F2               	movwf	___llmod@divisor+2
  3108  078B  160A  118A  200A  120A  118A  	fcall	stringdir
  3109  0790  00F3               	movwf	___llmod@divisor+3
  3110  0791  0836               	movf	(sprintf@val+3)^(0+128),w
  3111  0792  00F7               	movwf	___llmod@dividend+3
  3112  0793  0835               	movf	(sprintf@val+2)^(0+128),w
  3113  0794  00F6               	movwf	___llmod@dividend+2
  3114  0795  0834               	movf	(sprintf@val+1)^(0+128),w
  3115  0796  00F5               	movwf	___llmod@dividend+1
  3116  0797  0833               	movf	sprintf@val^(0+128),w
  3117  0798  00F4               	movwf	___llmod@dividend
  3118  0799  160A  158A  2608  120A  118A  	fcall	___llmod
  3119  079E  0873               	movf	?___llmod+3,w
  3120  079F  1683               	bsf	3,5	;RP0=1, select bank1
  3121  07A0  1303               	bcf	3,6	;RP1=0, select bank1
  3122  07A1  00B6               	movwf	(sprintf@val+3)^(0+128)
  3123  07A2  0872               	movf	?___llmod+2,w
  3124  07A3  00B5               	movwf	(sprintf@val+2)^(0+128)
  3125  07A4  0871               	movf	?___llmod+1,w
  3126  07A5  00B4               	movwf	(sprintf@val+1)^(0+128)
  3127  07A6  0870               	movf	?___llmod,w
  3128  07A7  00B3               	movwf	sprintf@val^(0+128)
  3129  07A8                     l3147:	
  3130                           
  3131                           ;C:\Program Files (x86)\Microchip\xc8\v2.10\pic\sources\c90\common\doprnt.c: 1254:    wh
      +                          ile(c--) {
  3132  07A8  3001               	movlw	1
  3133  07A9  02C2               	subwf	sprintf@c^(0+128),f
  3134  07AA  0A42               	incf	sprintf@c^(0+128),w
  3135  07AB  1D03               	btfss	3,2
  3136  07AC  2FAE               	goto	u5471
  3137  07AD  2FAF               	goto	u5470
  3138  07AE                     u5471:	
  3139  07AE  2F07               	goto	l3139
  3140  07AF                     u5470:	
  3141  07AF  2FC1               	goto	l3155
  3142  07B0                     l3149:	
  3143                           
  3144                           ;C:\Program Files (x86)\Microchip\xc8\v2.10\pic\sources\c90\common\doprnt.c: 1262:     (
      +                          (*sp++ = ('0')));
  3145  07B0  3030               	movlw	48
  3146  07B1  00A5               	movwf	??_sprintf^(0+128)
  3147  07B2  083D               	movf	sprintf@sp^(0+128),w
  3148  07B3  0084               	movwf	4
  3149  07B4  0825               	movf	??_sprintf^(0+128),w
  3150  07B5  1383               	bcf	3,7	;select IRP bank0
  3151  07B6  0080               	movwf	0
  3152  07B7                     l3151:	
  3153  07B7  3001               	movlw	1
  3154  07B8  00A5               	movwf	??_sprintf^(0+128)
  3155  07B9  0825               	movf	??_sprintf^(0+128),w
  3156  07BA  07BD               	addwf	sprintf@sp^(0+128),f
  3157  07BB                     l3153:	
  3158                           
  3159                           ;C:\Program Files (x86)\Microchip\xc8\v2.10\pic\sources\c90\common\doprnt.c: 1263:     p
      +                          rec--;
  3160  07BB  30FF               	movlw	255
  3161  07BC  07B1               	addwf	sprintf@prec^(0+128),f
  3162  07BD  1803               	skipnc
  3163  07BE  0AB2               	incf	(sprintf@prec+1)^(0+128),f
  3164  07BF  30FF               	movlw	255
  3165  07C0  07B2               	addwf	(sprintf@prec+1)^(0+128),f
  3166  07C1                     l3155:	
  3167                           
  3168                           ;C:\Program Files (x86)\Microchip\xc8\v2.10\pic\sources\c90\common\doprnt.c: 1261:    wh
      +                          ile(prec) {
  3169  07C1  0831               	movf	sprintf@prec^(0+128),w
  3170  07C2  0432               	iorwf	(sprintf@prec+1)^(0+128),w
  3171  07C3  1D03               	btfss	3,2
  3172  07C4  2FC6               	goto	u5481
  3173  07C5  2FC7               	goto	u5480
  3174  07C6                     u5481:	
  3175  07C6  2FB0               	goto	l3149
  3176  07C7                     u5480:	
  3177  07C7  2FDC               	goto	l3163
  3178  07C8                     l3157:	
  3179                           
  3180                           ;C:\Program Files (x86)\Microchip\xc8\v2.10\pic\sources\c90\common\doprnt.c: 1448:   {;C
      +                          :\Program Files (x86)\Microchip\xc8\v2.10\pic\sources\c90\common\doprnt.c: 1464:    if(f
      +                          lag & 0x03)
  3181  07C8  3003               	movlw	3
  3182  07C9  052F               	andwf	sprintf@flag^(0+128),w
  3183  07CA  00A5               	movwf	??_sprintf^(0+128)
  3184  07CB  3000               	movlw	0
  3185  07CC  0530               	andwf	(sprintf@flag+1)^(0+128),w
  3186  07CD  00A6               	movwf	(??_sprintf+1)^(0+128)
  3187  07CE  0825               	movf	??_sprintf^(0+128),w
  3188  07CF  0426               	iorwf	(??_sprintf^(0+128)+1),w
  3189  07D0  1903               	btfsc	3,2
  3190  07D1  2FD3               	goto	u5491
  3191  07D2  2FD4               	goto	u5490
  3192  07D3                     u5491:	
  3193  07D3  2FDC               	goto	l3163
  3194  07D4                     u5490:	
  3195  07D4                     l3159:	
  3196                           
  3197                           ;C:\Program Files (x86)\Microchip\xc8\v2.10\pic\sources\c90\common\doprnt.c: 1465:     (
      +                          (*sp++ = ('-')));
  3198  07D4  302D               	movlw	45
  3199  07D5  00A5               	movwf	??_sprintf^(0+128)
  3200  07D6  083D               	movf	sprintf@sp^(0+128),w
  3201  07D7  0084               	movwf	4
  3202  07D8  0825               	movf	??_sprintf^(0+128),w
  3203  07D9  1383               	bcf	3,7	;select IRP bank0
  3204  07DA  0080               	movwf	0
  3205  07DB  2A4E               	goto	l3009
  3206  07DC                     l3163:	
  3207                           
  3208                           ;C:\Program Files (x86)\Microchip\xc8\v2.10\pic\sources\c90\common\doprnt.c: 553:  while
      +                          ((c = *f++)) {
  3209  07DC  3001               	movlw	1
  3210  07DD  07A0               	addwf	sprintf@f^(0+128),f
  3211  07DE  30FF               	movlw	-1
  3212  07DF  0720               	addwf	sprintf@f^(0+128),w
  3213  07E0  0084               	movwf	4
  3214  07E1  160A  118A  200A  120A  118A  	fcall	stringdir
  3215  07E6  00A5               	movwf	??_sprintf^(0+128)
  3216  07E7  0825               	movf	??_sprintf^(0+128),w
  3217  07E8  00C2               	movwf	sprintf@c^(0+128)
  3218  07E9  0842               	movf	sprintf@c^(0+128),w
  3219  07EA  1D03               	btfss	3,2
  3220  07EB  2FED               	goto	u5501
  3221  07EC  2FEE               	goto	u5500
  3222  07ED                     u5501:	
  3223  07ED  2A41               	goto	l3005
  3224  07EE                     u5500:	
  3225  07EE                     l3165:	
  3226                           
  3227                           ;C:\Program Files (x86)\Microchip\xc8\v2.10\pic\sources\c90\common\doprnt.c: 1564:  *sp 
      +                          = 0;
  3228  07EE  083D               	movf	sprintf@sp^(0+128),w
  3229  07EF  0084               	movwf	4
  3230  07F0  1383               	bcf	3,7	;select IRP bank0
  3231  07F1  0180               	clrf	0
  3232  07F2                     l259:	
  3233  07F2  0008               	return
  3234  07F3                     __end_of_sprintf:	
  3235                           
  3236                           	psect	text4
  3237  0940                     __ptext4:	
  3238 ;; *************** function _scale *****************
  3239 ;; Defined at:
  3240 ;;		line 433 in file "C:\Program Files (x86)\Microchip\xc8\v2.10\pic\sources\c90\common\doprnt.c"
  3241 ;; Parameters:    Size  Location     Type
  3242 ;;  scl             1    wreg     char 
  3243 ;; Auto vars:     Size  Location     Type
  3244 ;;  scl             1   48[BANK0 ] char 
  3245 ;; Return value:  Size  Location     Type
  3246 ;;                  4   30[BANK0 ] char 
  3247 ;; Registers used:
  3248 ;;		wreg, fsr0l, fsr0h, status,2, status,0, btemp+1, pclath, cstack
  3249 ;; Tracked objects:
  3250 ;;		On entry : 0/0
  3251 ;;		On exit  : 0/0
  3252 ;;		Unchanged: 0/0
  3253 ;; Data sizes:     COMMON   BANK0   BANK1   BANK3   BANK2
  3254 ;;      Params:         0       4       0       0       0
  3255 ;;      Locals:         0       5       0       0       0
  3256 ;;      Temps:          0      10       0       0       0
  3257 ;;      Totals:         0      19       0       0       0
  3258 ;;Total ram usage:       19 bytes
  3259 ;; Hardware stack levels used:    1
  3260 ;; Hardware stack levels required when called:    2
  3261 ;; This function calls:
  3262 ;;		___awdiv
  3263 ;;		___awmod
  3264 ;;		___flmul
  3265 ;; This function is called by:
  3266 ;;		_sprintf
  3267 ;; This function uses a non-reentrant model
  3268 ;;
  3269                           
  3270                           
  3271                           ;psect for function _scale
  3272  0940                     _scale:	
  3273                           
  3274                           ;incstack = 0
  3275                           ; Regs used in _scale: [wreg-fsr0h+status,2+status,0+btemp+1+pclath+cstack]
  3276                           ;scale@scl stored from wreg
  3277  0940  1283               	bcf	3,5	;RP0=0, select bank0
  3278  0941  1303               	bcf	3,6	;RP1=0, select bank0
  3279  0942  00D0               	movwf	scale@scl
  3280  0943                     l2645:	
  3281                           
  3282                           ;C:\Program Files (x86)\Microchip\xc8\v2.10\pic\sources\c90\common\doprnt.c: 433: scale(
      +                          signed char scl);C:\Program Files (x86)\Microchip\xc8\v2.10\pic\sources\c90\common\doprn
      +                          t.c: 434: {;C:\Program Files (x86)\Microchip\xc8\v2.10\pic\sources\c90\common\doprnt.c: 
      +                          436:  if(scl < 0) {
  3283  0943  1FD0               	btfss	scale@scl,7
  3284  0944  2946               	goto	u4221
  3285  0945  2947               	goto	u4220
  3286  0946                     u4221:	
  3287  0946  2AF4               	goto	l2667
  3288  0947                     u4220:	
  3289  0947                     l2647:	
  3290                           
  3291                           ;C:\Program Files (x86)\Microchip\xc8\v2.10\pic\sources\c90\common\doprnt.c: 437:   scl 
      +                          = -scl;
  3292  0947  09D0               	comf	scale@scl,f
  3293  0948  0AD0               	incf	scale@scl,f
  3294  0949                     l2649:	
  3295                           
  3296                           ;C:\Program Files (x86)\Microchip\xc8\v2.10\pic\sources\c90\common\doprnt.c: 438:   if(s
      +                          cl>=110)
  3297  0949  0850               	movf	scale@scl,w
  3298  094A  3A80               	xorlw	128
  3299  094B  3E12               	addlw	-238
  3300  094C  1C03               	skipc
  3301  094D  294F               	goto	u4231
  3302  094E  2950               	goto	u4230
  3303  094F                     u4231:	
  3304  094F  2A38               	goto	l2657
  3305  0950                     u4230:	
  3306  0950                     l2651:	
  3307                           
  3308                           ;C:\Program Files (x86)\Microchip\xc8\v2.10\pic\sources\c90\common\doprnt.c: 439:    ret
      +                          urn _npowers_[(unsigned char)(scl/100+18)] * _npowers_[(unsigned char)((scl%100)/10+9)] 
      +                          * _npowers_[(unsigned char)(scl%10)];
  3309  0950  300A               	movlw	10
  3310  0951  00F7               	movwf	___awdiv@divisor
  3311  0952  3000               	movlw	0
  3312  0953  00F8               	movwf	___awdiv@divisor+1
  3313  0954  0850               	movf	scale@scl,w
  3314  0955  00F2               	movwf	___awmod@dividend
  3315  0956  01F3               	clrf	___awmod@dividend+1
  3316  0957  1BF2               	btfsc	___awmod@dividend,7
  3317  0958  03F3               	decf	___awmod@dividend+1,f
  3318  0959  3064               	movlw	100
  3319  095A  00F0               	movwf	___awmod@divisor
  3320  095B  3000               	movlw	0
  3321  095C  00F1               	movwf	___awmod@divisor+1
  3322  095D  160A  158A  265C  120A  158A  	fcall	___awmod
  3323  0962  0871               	movf	?___awmod+1,w
  3324  0963  00FA               	movwf	___awdiv@dividend+1
  3325  0964  0870               	movf	?___awmod,w
  3326  0965  00F9               	movwf	___awdiv@dividend
  3327  0966  160A  158A  271B  120A  158A  	fcall	___awdiv
  3328  096B  0877               	movf	?___awdiv,w
  3329  096C  1283               	bcf	3,5	;RP0=0, select bank0
  3330  096D  1303               	bcf	3,6	;RP1=0, select bank0
  3331  096E  00C2               	movwf	??_scale
  3332  096F  3001               	movlw	1
  3333  0970                     u4245:	
  3334  0970  1003               	clrc
  3335  0971  0DC2               	rlf	??_scale,f
  3336  0972  3EFF               	addlw	-1
  3337  0973  1D03               	skipz
  3338  0974  2970               	goto	u4245
  3339  0975  1003               	clrc
  3340  0976  0D42               	rlf	??_scale,w
  3341  0977  3E59               	addlw	low (((__npowers_-__stringbase)| (0+32768)+36))
  3342  0978  0084               	movwf	4
  3343  0979  160A  118A  200A  120A  158A  	fcall	stringdir
  3344  097E  00C3               	movwf	??_scale+1
  3345  097F  160A  118A  200A  120A  158A  	fcall	stringdir
  3346  0984  00C4               	movwf	??_scale+2
  3347  0985  160A  118A  200A  120A  158A  	fcall	stringdir
  3348  098A  00C5               	movwf	??_scale+3
  3349  098B  160A  118A  200A  120A  158A  	fcall	stringdir
  3350  0990  00C6               	movwf	??_scale+4
  3351  0991  0846               	movf	??_scale+4,w
  3352  0992  00A7               	movwf	___flmul@b+3
  3353  0993  0845               	movf	??_scale+3,w
  3354  0994  00A6               	movwf	___flmul@b+2
  3355  0995  0844               	movf	??_scale+2,w
  3356  0996  00A5               	movwf	___flmul@b+1
  3357  0997  0843               	movf	??_scale+1,w
  3358  0998  00A4               	movwf	___flmul@b
  3359  0999  3064               	movlw	100
  3360  099A  00F7               	movwf	___awdiv@divisor
  3361  099B  3000               	movlw	0
  3362  099C  00F8               	movwf	___awdiv@divisor+1
  3363  099D  0850               	movf	scale@scl,w
  3364  099E  00F9               	movwf	___awdiv@dividend
  3365  099F  01FA               	clrf	___awdiv@dividend+1
  3366  09A0  1BF9               	btfsc	___awdiv@dividend,7
  3367  09A1  03FA               	decf	___awdiv@dividend+1,f
  3368  09A2  160A  158A  271B  120A  158A  	fcall	___awdiv
  3369  09A7  0877               	movf	?___awdiv,w
  3370  09A8  1283               	bcf	3,5	;RP0=0, select bank0
  3371  09A9  1303               	bcf	3,6	;RP1=0, select bank0
  3372  09AA  00C7               	movwf	??_scale+5
  3373  09AB  3001               	movlw	1
  3374  09AC                     u4255:	
  3375  09AC  1003               	clrc
  3376  09AD  0DC7               	rlf	??_scale+5,f
  3377  09AE  3EFF               	addlw	-1
  3378  09AF  1D03               	skipz
  3379  09B0  29AC               	goto	u4255
  3380  09B1  1003               	clrc
  3381  09B2  0D47               	rlf	??_scale+5,w
  3382  09B3  3E7D               	addlw	low (((__npowers_-__stringbase)| (0+32768)+72))
  3383  09B4  0084               	movwf	4
  3384  09B5  160A  118A  200A  120A  158A  	fcall	stringdir
  3385  09BA  00C8               	movwf	??_scale+6
  3386  09BB  160A  118A  200A  120A  158A  	fcall	stringdir
  3387  09C0  00C9               	movwf	??_scale+7
  3388  09C1  160A  118A  200A  120A  158A  	fcall	stringdir
  3389  09C6  00CA               	movwf	??_scale+8
  3390  09C7  160A  118A  200A  120A  158A  	fcall	stringdir
  3391  09CC  00CB               	movwf	??_scale+9
  3392  09CD  084B               	movf	??_scale+9,w
  3393  09CE  00AB               	movwf	___flmul@a+3
  3394  09CF  084A               	movf	??_scale+8,w
  3395  09D0  00AA               	movwf	___flmul@a+2
  3396  09D1  0849               	movf	??_scale+7,w
  3397  09D2  00A9               	movwf	___flmul@a+1
  3398  09D3  0848               	movf	??_scale+6,w
  3399  09D4  00A8               	movwf	___flmul@a
  3400  09D5  120A  158A  249F  120A  158A  	fcall	___flmul
  3401  09DA  1283               	bcf	3,5	;RP0=0, select bank0
  3402  09DB  1303               	bcf	3,6	;RP1=0, select bank0
  3403  09DC  0827               	movf	?___flmul+3,w
  3404  09DD  00CF               	movwf	_scale$779+3
  3405  09DE  0826               	movf	?___flmul+2,w
  3406  09DF  00CE               	movwf	_scale$779+2
  3407  09E0  0825               	movf	?___flmul+1,w
  3408  09E1  00CD               	movwf	_scale$779+1
  3409  09E2  0824               	movf	?___flmul,w
  3410  09E3  00CC               	movwf	_scale$779
  3411                           
  3412                           ;C:\Program Files (x86)\Microchip\xc8\v2.10\pic\sources\c90\common\doprnt.c: 439:    ret
      +                          urn _npowers_[(unsigned char)(scl/100+18)] * _npowers_[(unsigned char)((scl%100)/10+9)] 
      +                          * _npowers_[(unsigned char)(scl%10)];
  3413  09E4  300A               	movlw	10
  3414  09E5  00F0               	movwf	___awmod@divisor
  3415  09E6  3000               	movlw	0
  3416  09E7  00F1               	movwf	___awmod@divisor+1
  3417  09E8  0850               	movf	scale@scl,w
  3418  09E9  00F2               	movwf	___awmod@dividend
  3419  09EA  01F3               	clrf	___awmod@dividend+1
  3420  09EB  1BF2               	btfsc	___awmod@dividend,7
  3421  09EC  03F3               	decf	___awmod@dividend+1,f
  3422  09ED  160A  158A  265C  120A  158A  	fcall	___awmod
  3423  09F2  0870               	movf	?___awmod,w
  3424  09F3  1283               	bcf	3,5	;RP0=0, select bank0
  3425  09F4  1303               	bcf	3,6	;RP1=0, select bank0
  3426  09F5  00C2               	movwf	??_scale
  3427  09F6  3001               	movlw	1
  3428  09F7                     u4265:	
  3429  09F7  1003               	clrc
  3430  09F8  0DC2               	rlf	??_scale,f
  3431  09F9  3EFF               	addlw	-1
  3432  09FA  1D03               	skipz
  3433  09FB  29F7               	goto	u4265
  3434  09FC  1003               	clrc
  3435  09FD  0D42               	rlf	??_scale,w
  3436  09FE  3E35               	addlw	low ((__npowers_-__stringbase)| (0+32768))
  3437  09FF  0084               	movwf	4
  3438  0A00  160A  118A  200A  120A  158A  	fcall	stringdir
  3439  0A05  00C3               	movwf	??_scale+1
  3440  0A06  160A  118A  200A  120A  158A  	fcall	stringdir
  3441  0A0B  00C4               	movwf	??_scale+2
  3442  0A0C  160A  118A  200A  120A  158A  	fcall	stringdir
  3443  0A11  00C5               	movwf	??_scale+3
  3444  0A12  160A  118A  200A  120A  158A  	fcall	stringdir
  3445  0A17  00C6               	movwf	??_scale+4
  3446  0A18  0846               	movf	??_scale+4,w
  3447  0A19  00A7               	movwf	___flmul@b+3
  3448  0A1A  0845               	movf	??_scale+3,w
  3449  0A1B  00A6               	movwf	___flmul@b+2
  3450  0A1C  0844               	movf	??_scale+2,w
  3451  0A1D  00A5               	movwf	___flmul@b+1
  3452  0A1E  0843               	movf	??_scale+1,w
  3453  0A1F  00A4               	movwf	___flmul@b
  3454  0A20  084F               	movf	_scale$779+3,w
  3455  0A21  00AB               	movwf	___flmul@a+3
  3456  0A22  084E               	movf	_scale$779+2,w
  3457  0A23  00AA               	movwf	___flmul@a+2
  3458  0A24  084D               	movf	_scale$779+1,w
  3459  0A25  00A9               	movwf	___flmul@a+1
  3460  0A26  084C               	movf	_scale$779,w
  3461  0A27  00A8               	movwf	___flmul@a
  3462  0A28  120A  158A  249F  120A  158A  	fcall	___flmul
  3463  0A2D  1283               	bcf	3,5	;RP0=0, select bank0
  3464  0A2E  1303               	bcf	3,6	;RP1=0, select bank0
  3465  0A2F  0827               	movf	?___flmul+3,w
  3466  0A30  00C1               	movwf	?_scale+3
  3467  0A31  0826               	movf	?___flmul+2,w
  3468  0A32  00C0               	movwf	?_scale+2
  3469  0A33  0825               	movf	?___flmul+1,w
  3470  0A34  00BF               	movwf	?_scale+1
  3471  0A35  0824               	movf	?___flmul,w
  3472  0A36  00BE               	movwf	?_scale
  3473  0A37  2C9E               	goto	l203
  3474  0A38                     l2657:	
  3475  0A38  0850               	movf	scale@scl,w
  3476  0A39  3A80               	xorlw	128
  3477  0A3A  3E75               	addlw	-139
  3478  0A3B  1C03               	skipc
  3479  0A3C  2A3E               	goto	u4271
  3480  0A3D  2A3F               	goto	u4270
  3481  0A3E                     u4271:	
  3482  0A3E  2AC7               	goto	l2663
  3483  0A3F                     u4270:	
  3484  0A3F                     l2659:	
  3485                           
  3486                           ;C:\Program Files (x86)\Microchip\xc8\v2.10\pic\sources\c90\common\doprnt.c: 441:    ret
      +                          urn _npowers_[(unsigned char)(scl/10+9)] * _npowers_[(unsigned char)(scl%10)];
  3487  0A3F  300A               	movlw	10
  3488  0A40  00F0               	movwf	___awmod@divisor
  3489  0A41  3000               	movlw	0
  3490  0A42  00F1               	movwf	___awmod@divisor+1
  3491  0A43  0850               	movf	scale@scl,w
  3492  0A44  00F2               	movwf	___awmod@dividend
  3493  0A45  01F3               	clrf	___awmod@dividend+1
  3494  0A46  1BF2               	btfsc	___awmod@dividend,7
  3495  0A47  03F3               	decf	___awmod@dividend+1,f
  3496  0A48  160A  158A  265C  120A  158A  	fcall	___awmod
  3497  0A4D  0870               	movf	?___awmod,w
  3498  0A4E  1283               	bcf	3,5	;RP0=0, select bank0
  3499  0A4F  1303               	bcf	3,6	;RP1=0, select bank0
  3500  0A50  00C2               	movwf	??_scale
  3501  0A51  3001               	movlw	1
  3502  0A52                     u4285:	
  3503  0A52  1003               	clrc
  3504  0A53  0DC2               	rlf	??_scale,f
  3505  0A54  3EFF               	addlw	-1
  3506  0A55  1D03               	skipz
  3507  0A56  2A52               	goto	u4285
  3508  0A57  1003               	clrc
  3509  0A58  0D42               	rlf	??_scale,w
  3510  0A59  3E35               	addlw	low ((__npowers_-__stringbase)| (0+32768))
  3511  0A5A  0084               	movwf	4
  3512  0A5B  160A  118A  200A  120A  158A  	fcall	stringdir
  3513  0A60  00C3               	movwf	??_scale+1
  3514  0A61  160A  118A  200A  120A  158A  	fcall	stringdir
  3515  0A66  00C4               	movwf	??_scale+2
  3516  0A67  160A  118A  200A  120A  158A  	fcall	stringdir
  3517  0A6C  00C5               	movwf	??_scale+3
  3518  0A6D  160A  118A  200A  120A  158A  	fcall	stringdir
  3519  0A72  00C6               	movwf	??_scale+4
  3520  0A73  0846               	movf	??_scale+4,w
  3521  0A74  00A7               	movwf	___flmul@b+3
  3522  0A75  0845               	movf	??_scale+3,w
  3523  0A76  00A6               	movwf	___flmul@b+2
  3524  0A77  0844               	movf	??_scale+2,w
  3525  0A78  00A5               	movwf	___flmul@b+1
  3526  0A79  0843               	movf	??_scale+1,w
  3527  0A7A  00A4               	movwf	___flmul@b
  3528  0A7B  300A               	movlw	10
  3529  0A7C  00F7               	movwf	___awdiv@divisor
  3530  0A7D  3000               	movlw	0
  3531  0A7E  00F8               	movwf	___awdiv@divisor+1
  3532  0A7F  0850               	movf	scale@scl,w
  3533  0A80  00F9               	movwf	___awdiv@dividend
  3534  0A81  01FA               	clrf	___awdiv@dividend+1
  3535  0A82  1BF9               	btfsc	___awdiv@dividend,7
  3536  0A83  03FA               	decf	___awdiv@dividend+1,f
  3537  0A84  160A  158A  271B  120A  158A  	fcall	___awdiv
  3538  0A89  0877               	movf	?___awdiv,w
  3539  0A8A  1283               	bcf	3,5	;RP0=0, select bank0
  3540  0A8B  1303               	bcf	3,6	;RP1=0, select bank0
  3541  0A8C  00C7               	movwf	??_scale+5
  3542  0A8D  3001               	movlw	1
  3543  0A8E                     u4295:	
  3544  0A8E  1003               	clrc
  3545  0A8F  0DC7               	rlf	??_scale+5,f
  3546  0A90  3EFF               	addlw	-1
  3547  0A91  1D03               	skipz
  3548  0A92  2A8E               	goto	u4295
  3549  0A93  1003               	clrc
  3550  0A94  0D47               	rlf	??_scale+5,w
  3551  0A95  3E59               	addlw	low (((__npowers_-__stringbase)| (0+32768)+36))
  3552  0A96  0084               	movwf	4
  3553  0A97  160A  118A  200A  120A  158A  	fcall	stringdir
  3554  0A9C  00C8               	movwf	??_scale+6
  3555  0A9D  160A  118A  200A  120A  158A  	fcall	stringdir
  3556  0AA2  00C9               	movwf	??_scale+7
  3557  0AA3  160A  118A  200A  120A  158A  	fcall	stringdir
  3558  0AA8  00CA               	movwf	??_scale+8
  3559  0AA9  160A  118A  200A  120A  158A  	fcall	stringdir
  3560  0AAE  00CB               	movwf	??_scale+9
  3561  0AAF  084B               	movf	??_scale+9,w
  3562  0AB0  00AB               	movwf	___flmul@a+3
  3563  0AB1  084A               	movf	??_scale+8,w
  3564  0AB2  00AA               	movwf	___flmul@a+2
  3565  0AB3  0849               	movf	??_scale+7,w
  3566  0AB4  00A9               	movwf	___flmul@a+1
  3567  0AB5  0848               	movf	??_scale+6,w
  3568  0AB6  00A8               	movwf	___flmul@a
  3569  0AB7  120A  158A  249F  120A  158A  	fcall	___flmul
  3570  0ABC  1283               	bcf	3,5	;RP0=0, select bank0
  3571  0ABD  1303               	bcf	3,6	;RP1=0, select bank0
  3572  0ABE  0827               	movf	?___flmul+3,w
  3573  0ABF  00C1               	movwf	?_scale+3
  3574  0AC0  0826               	movf	?___flmul+2,w
  3575  0AC1  00C0               	movwf	?_scale+2
  3576  0AC2  0825               	movf	?___flmul+1,w
  3577  0AC3  00BF               	movwf	?_scale+1
  3578  0AC4  0824               	movf	?___flmul,w
  3579  0AC5  00BE               	movwf	?_scale
  3580  0AC6  2C9E               	goto	l203
  3581  0AC7                     l2663:	
  3582                           
  3583                           ;C:\Program Files (x86)\Microchip\xc8\v2.10\pic\sources\c90\common\doprnt.c: 442:   retu
      +                          rn _npowers_[(unsigned char)scl];
  3584  0AC7  0850               	movf	scale@scl,w
  3585  0AC8  00C2               	movwf	??_scale
  3586  0AC9  3001               	movlw	1
  3587  0ACA                     u4305:	
  3588  0ACA  1003               	clrc
  3589  0ACB  0DC2               	rlf	??_scale,f
  3590  0ACC  3EFF               	addlw	-1
  3591  0ACD  1D03               	skipz
  3592  0ACE  2ACA               	goto	u4305
  3593  0ACF  1003               	clrc
  3594  0AD0  0D42               	rlf	??_scale,w
  3595  0AD1  3E35               	addlw	low ((__npowers_-__stringbase)| (0+32768))
  3596  0AD2  0084               	movwf	4
  3597  0AD3  160A  118A  200A  120A  158A  	fcall	stringdir
  3598  0AD8  00C3               	movwf	??_scale+1
  3599  0AD9  160A  118A  200A  120A  158A  	fcall	stringdir
  3600  0ADE  00C4               	movwf	??_scale+2
  3601  0ADF  160A  118A  200A  120A  158A  	fcall	stringdir
  3602  0AE4  00C5               	movwf	??_scale+3
  3603  0AE5  160A  118A  200A  120A  158A  	fcall	stringdir
  3604  0AEA  00C6               	movwf	??_scale+4
  3605  0AEB  0846               	movf	??_scale+4,w
  3606  0AEC  00C1               	movwf	?_scale+3
  3607  0AED  0845               	movf	??_scale+3,w
  3608  0AEE  00C0               	movwf	?_scale+2
  3609  0AEF  0844               	movf	??_scale+2,w
  3610  0AF0  00BF               	movwf	?_scale+1
  3611  0AF1  0843               	movf	??_scale+1,w
  3612  0AF2  00BE               	movwf	?_scale
  3613  0AF3  2C9E               	goto	l203
  3614  0AF4                     l2667:	
  3615                           
  3616                           ;C:\Program Files (x86)\Microchip\xc8\v2.10\pic\sources\c90\common\doprnt.c: 444:  if(sc
      +                          l>=110)
  3617  0AF4  0850               	movf	scale@scl,w
  3618  0AF5  3A80               	xorlw	128
  3619  0AF6  3E12               	addlw	-238
  3620  0AF7  1C03               	skipc
  3621  0AF8  2AFA               	goto	u4311
  3622  0AF9  2AFB               	goto	u4310
  3623  0AFA                     u4311:	
  3624  0AFA  2BE3               	goto	l2675
  3625  0AFB                     u4310:	
  3626  0AFB                     l2669:	
  3627                           
  3628                           ;C:\Program Files (x86)\Microchip\xc8\v2.10\pic\sources\c90\common\doprnt.c: 445:   retu
      +                          rn _powers_[(unsigned char)(scl/100+18)] * _powers_[(unsigned char)((scl%100)/10+9)] * _
      +                          powers_[(unsigned char)(scl%10)];
  3629  0AFB  300A               	movlw	10
  3630  0AFC  00F7               	movwf	___awdiv@divisor
  3631  0AFD  3000               	movlw	0
  3632  0AFE  00F8               	movwf	___awdiv@divisor+1
  3633  0AFF  0850               	movf	scale@scl,w
  3634  0B00  00F2               	movwf	___awmod@dividend
  3635  0B01  01F3               	clrf	___awmod@dividend+1
  3636  0B02  1BF2               	btfsc	___awmod@dividend,7
  3637  0B03  03F3               	decf	___awmod@dividend+1,f
  3638  0B04  3064               	movlw	100
  3639  0B05  00F0               	movwf	___awmod@divisor
  3640  0B06  3000               	movlw	0
  3641  0B07  00F1               	movwf	___awmod@divisor+1
  3642  0B08  160A  158A  265C  120A  158A  	fcall	___awmod
  3643  0B0D  0871               	movf	?___awmod+1,w
  3644  0B0E  00FA               	movwf	___awdiv@dividend+1
  3645  0B0F  0870               	movf	?___awmod,w
  3646  0B10  00F9               	movwf	___awdiv@dividend
  3647  0B11  160A  158A  271B  120A  158A  	fcall	___awdiv
  3648  0B16  0877               	movf	?___awdiv,w
  3649  0B17  1283               	bcf	3,5	;RP0=0, select bank0
  3650  0B18  1303               	bcf	3,6	;RP1=0, select bank0
  3651  0B19  00C2               	movwf	??_scale
  3652  0B1A  3001               	movlw	1
  3653  0B1B                     u4325:	
  3654  0B1B  1003               	clrc
  3655  0B1C  0DC2               	rlf	??_scale,f
  3656  0B1D  3EFF               	addlw	-1
  3657  0B1E  1D03               	skipz
  3658  0B1F  2B1B               	goto	u4325
  3659  0B20  1003               	clrc
  3660  0B21  0D42               	rlf	??_scale,w
  3661  0B22  3E25               	addlw	low (((__powers_-__stringbase)| (0+32768)+36))
  3662  0B23  0084               	movwf	4
  3663  0B24  160A  118A  200A  120A  158A  	fcall	stringdir
  3664  0B29  00C3               	movwf	??_scale+1
  3665  0B2A  160A  118A  200A  120A  158A  	fcall	stringdir
  3666  0B2F  00C4               	movwf	??_scale+2
  3667  0B30  160A  118A  200A  120A  158A  	fcall	stringdir
  3668  0B35  00C5               	movwf	??_scale+3
  3669  0B36  160A  118A  200A  120A  158A  	fcall	stringdir
  3670  0B3B  00C6               	movwf	??_scale+4
  3671  0B3C  0846               	movf	??_scale+4,w
  3672  0B3D  00A7               	movwf	___flmul@b+3
  3673  0B3E  0845               	movf	??_scale+3,w
  3674  0B3F  00A6               	movwf	___flmul@b+2
  3675  0B40  0844               	movf	??_scale+2,w
  3676  0B41  00A5               	movwf	___flmul@b+1
  3677  0B42  0843               	movf	??_scale+1,w
  3678  0B43  00A4               	movwf	___flmul@b
  3679  0B44  3064               	movlw	100
  3680  0B45  00F7               	movwf	___awdiv@divisor
  3681  0B46  3000               	movlw	0
  3682  0B47  00F8               	movwf	___awdiv@divisor+1
  3683  0B48  0850               	movf	scale@scl,w
  3684  0B49  00F9               	movwf	___awdiv@dividend
  3685  0B4A  01FA               	clrf	___awdiv@dividend+1
  3686  0B4B  1BF9               	btfsc	___awdiv@dividend,7
  3687  0B4C  03FA               	decf	___awdiv@dividend+1,f
  3688  0B4D  160A  158A  271B  120A  158A  	fcall	___awdiv
  3689  0B52  0877               	movf	?___awdiv,w
  3690  0B53  1283               	bcf	3,5	;RP0=0, select bank0
  3691  0B54  1303               	bcf	3,6	;RP1=0, select bank0
  3692  0B55  00C7               	movwf	??_scale+5
  3693  0B56  3001               	movlw	1
  3694  0B57                     u4335:	
  3695  0B57  1003               	clrc
  3696  0B58  0DC7               	rlf	??_scale+5,f
  3697  0B59  3EFF               	addlw	-1
  3698  0B5A  1D03               	skipz
  3699  0B5B  2B57               	goto	u4335
  3700  0B5C  1003               	clrc
  3701  0B5D  0D47               	rlf	??_scale+5,w
  3702  0B5E  3E49               	addlw	low (((__powers_-__stringbase)| (0+32768)+72))
  3703  0B5F  0084               	movwf	4
  3704  0B60  160A  118A  200A  120A  158A  	fcall	stringdir
  3705  0B65  00C8               	movwf	??_scale+6
  3706  0B66  160A  118A  200A  120A  158A  	fcall	stringdir
  3707  0B6B  00C9               	movwf	??_scale+7
  3708  0B6C  160A  118A  200A  120A  158A  	fcall	stringdir
  3709  0B71  00CA               	movwf	??_scale+8
  3710  0B72  160A  118A  200A  120A  158A  	fcall	stringdir
  3711  0B77  00CB               	movwf	??_scale+9
  3712  0B78  084B               	movf	??_scale+9,w
  3713  0B79  00AB               	movwf	___flmul@a+3
  3714  0B7A  084A               	movf	??_scale+8,w
  3715  0B7B  00AA               	movwf	___flmul@a+2
  3716  0B7C  0849               	movf	??_scale+7,w
  3717  0B7D  00A9               	movwf	___flmul@a+1
  3718  0B7E  0848               	movf	??_scale+6,w
  3719  0B7F  00A8               	movwf	___flmul@a
  3720  0B80  120A  158A  249F  120A  158A  	fcall	___flmul
  3721  0B85  1283               	bcf	3,5	;RP0=0, select bank0
  3722  0B86  1303               	bcf	3,6	;RP1=0, select bank0
  3723  0B87  0827               	movf	?___flmul+3,w
  3724  0B88  00CF               	movwf	_scale$779+3
  3725  0B89  0826               	movf	?___flmul+2,w
  3726  0B8A  00CE               	movwf	_scale$779+2
  3727  0B8B  0825               	movf	?___flmul+1,w
  3728  0B8C  00CD               	movwf	_scale$779+1
  3729  0B8D  0824               	movf	?___flmul,w
  3730  0B8E  00CC               	movwf	_scale$779
  3731                           
  3732                           ;C:\Program Files (x86)\Microchip\xc8\v2.10\pic\sources\c90\common\doprnt.c: 445:   retu
      +                          rn _powers_[(unsigned char)(scl/100+18)] * _powers_[(unsigned char)((scl%100)/10+9)] * _
      +                          powers_[(unsigned char)(scl%10)];
  3733  0B8F  300A               	movlw	10
  3734  0B90  00F0               	movwf	___awmod@divisor
  3735  0B91  3000               	movlw	0
  3736  0B92  00F1               	movwf	___awmod@divisor+1
  3737  0B93  0850               	movf	scale@scl,w
  3738  0B94  00F2               	movwf	___awmod@dividend
  3739  0B95  01F3               	clrf	___awmod@dividend+1
  3740  0B96  1BF2               	btfsc	___awmod@dividend,7
  3741  0B97  03F3               	decf	___awmod@dividend+1,f
  3742  0B98  160A  158A  265C  120A  158A  	fcall	___awmod
  3743  0B9D  0870               	movf	?___awmod,w
  3744  0B9E  1283               	bcf	3,5	;RP0=0, select bank0
  3745  0B9F  1303               	bcf	3,6	;RP1=0, select bank0
  3746  0BA0  00C2               	movwf	??_scale
  3747  0BA1  3001               	movlw	1
  3748  0BA2                     u4345:	
  3749  0BA2  1003               	clrc
  3750  0BA3  0DC2               	rlf	??_scale,f
  3751  0BA4  3EFF               	addlw	-1
  3752  0BA5  1D03               	skipz
  3753  0BA6  2BA2               	goto	u4345
  3754  0BA7  1003               	clrc
  3755  0BA8  0D42               	rlf	??_scale,w
  3756  0BA9  3E01               	addlw	low ((__powers_-__stringbase)| (0+32768))
  3757  0BAA  0084               	movwf	4
  3758  0BAB  160A  118A  200A  120A  158A  	fcall	stringdir
  3759  0BB0  00C3               	movwf	??_scale+1
  3760  0BB1  160A  118A  200A  120A  158A  	fcall	stringdir
  3761  0BB6  00C4               	movwf	??_scale+2
  3762  0BB7  160A  118A  200A  120A  158A  	fcall	stringdir
  3763  0BBC  00C5               	movwf	??_scale+3
  3764  0BBD  160A  118A  200A  120A  158A  	fcall	stringdir
  3765  0BC2  00C6               	movwf	??_scale+4
  3766  0BC3  0846               	movf	??_scale+4,w
  3767  0BC4  00A7               	movwf	___flmul@b+3
  3768  0BC5  0845               	movf	??_scale+3,w
  3769  0BC6  00A6               	movwf	___flmul@b+2
  3770  0BC7  0844               	movf	??_scale+2,w
  3771  0BC8  00A5               	movwf	___flmul@b+1
  3772  0BC9  0843               	movf	??_scale+1,w
  3773  0BCA  00A4               	movwf	___flmul@b
  3774  0BCB  084F               	movf	_scale$779+3,w
  3775  0BCC  00AB               	movwf	___flmul@a+3
  3776  0BCD  084E               	movf	_scale$779+2,w
  3777  0BCE  00AA               	movwf	___flmul@a+2
  3778  0BCF  084D               	movf	_scale$779+1,w
  3779  0BD0  00A9               	movwf	___flmul@a+1
  3780  0BD1  084C               	movf	_scale$779,w
  3781  0BD2  00A8               	movwf	___flmul@a
  3782  0BD3  120A  158A  249F  120A  158A  	fcall	___flmul
  3783  0BD8  1283               	bcf	3,5	;RP0=0, select bank0
  3784  0BD9  1303               	bcf	3,6	;RP1=0, select bank0
  3785  0BDA  0827               	movf	?___flmul+3,w
  3786  0BDB  00C1               	movwf	?_scale+3
  3787  0BDC  0826               	movf	?___flmul+2,w
  3788  0BDD  00C0               	movwf	?_scale+2
  3789  0BDE  0825               	movf	?___flmul+1,w
  3790  0BDF  00BF               	movwf	?_scale+1
  3791  0BE0  0824               	movf	?___flmul,w
  3792  0BE1  00BE               	movwf	?_scale
  3793  0BE2  2C9E               	goto	l203
  3794  0BE3                     l2675:	
  3795  0BE3  0850               	movf	scale@scl,w
  3796  0BE4  3A80               	xorlw	128
  3797  0BE5  3E75               	addlw	-139
  3798  0BE6  1C03               	skipc
  3799  0BE7  2BE9               	goto	u4351
  3800  0BE8  2BEA               	goto	u4350
  3801  0BE9                     u4351:	
  3802  0BE9  2C72               	goto	l2681
  3803  0BEA                     u4350:	
  3804  0BEA                     l2677:	
  3805                           
  3806                           ;C:\Program Files (x86)\Microchip\xc8\v2.10\pic\sources\c90\common\doprnt.c: 447:   retu
      +                          rn _powers_[(unsigned char)(scl/10+9)] * _powers_[(unsigned char)(scl%10)];
  3807  0BEA  300A               	movlw	10
  3808  0BEB  00F0               	movwf	___awmod@divisor
  3809  0BEC  3000               	movlw	0
  3810  0BED  00F1               	movwf	___awmod@divisor+1
  3811  0BEE  0850               	movf	scale@scl,w
  3812  0BEF  00F2               	movwf	___awmod@dividend
  3813  0BF0  01F3               	clrf	___awmod@dividend+1
  3814  0BF1  1BF2               	btfsc	___awmod@dividend,7
  3815  0BF2  03F3               	decf	___awmod@dividend+1,f
  3816  0BF3  160A  158A  265C  120A  158A  	fcall	___awmod
  3817  0BF8  0870               	movf	?___awmod,w
  3818  0BF9  1283               	bcf	3,5	;RP0=0, select bank0
  3819  0BFA  1303               	bcf	3,6	;RP1=0, select bank0
  3820  0BFB  00C2               	movwf	??_scale
  3821  0BFC  3001               	movlw	1
  3822  0BFD                     u4365:	
  3823  0BFD  1003               	clrc
  3824  0BFE  0DC2               	rlf	??_scale,f
  3825  0BFF  3EFF               	addlw	-1
  3826  0C00  1D03               	skipz
  3827  0C01  2BFD               	goto	u4365
  3828  0C02  1003               	clrc
  3829  0C03  0D42               	rlf	??_scale,w
  3830  0C04  3E01               	addlw	low ((__powers_-__stringbase)| (0+32768))
  3831  0C05  0084               	movwf	4
  3832  0C06  160A  118A  200A  120A  158A  	fcall	stringdir
  3833  0C0B  00C3               	movwf	??_scale+1
  3834  0C0C  160A  118A  200A  120A  158A  	fcall	stringdir
  3835  0C11  00C4               	movwf	??_scale+2
  3836  0C12  160A  118A  200A  120A  158A  	fcall	stringdir
  3837  0C17  00C5               	movwf	??_scale+3
  3838  0C18  160A  118A  200A  120A  158A  	fcall	stringdir
  3839  0C1D  00C6               	movwf	??_scale+4
  3840  0C1E  0846               	movf	??_scale+4,w
  3841  0C1F  00A7               	movwf	___flmul@b+3
  3842  0C20  0845               	movf	??_scale+3,w
  3843  0C21  00A6               	movwf	___flmul@b+2
  3844  0C22  0844               	movf	??_scale+2,w
  3845  0C23  00A5               	movwf	___flmul@b+1
  3846  0C24  0843               	movf	??_scale+1,w
  3847  0C25  00A4               	movwf	___flmul@b
  3848  0C26  300A               	movlw	10
  3849  0C27  00F7               	movwf	___awdiv@divisor
  3850  0C28  3000               	movlw	0
  3851  0C29  00F8               	movwf	___awdiv@divisor+1
  3852  0C2A  0850               	movf	scale@scl,w
  3853  0C2B  00F9               	movwf	___awdiv@dividend
  3854  0C2C  01FA               	clrf	___awdiv@dividend+1
  3855  0C2D  1BF9               	btfsc	___awdiv@dividend,7
  3856  0C2E  03FA               	decf	___awdiv@dividend+1,f
  3857  0C2F  160A  158A  271B  120A  158A  	fcall	___awdiv
  3858  0C34  0877               	movf	?___awdiv,w
  3859  0C35  1283               	bcf	3,5	;RP0=0, select bank0
  3860  0C36  1303               	bcf	3,6	;RP1=0, select bank0
  3861  0C37  00C7               	movwf	??_scale+5
  3862  0C38  3001               	movlw	1
  3863  0C39                     u4375:	
  3864  0C39  1003               	clrc
  3865  0C3A  0DC7               	rlf	??_scale+5,f
  3866  0C3B  3EFF               	addlw	-1
  3867  0C3C  1D03               	skipz
  3868  0C3D  2C39               	goto	u4375
  3869  0C3E  1003               	clrc
  3870  0C3F  0D47               	rlf	??_scale+5,w
  3871  0C40  3E25               	addlw	low (((__powers_-__stringbase)| (0+32768)+36))
  3872  0C41  0084               	movwf	4
  3873  0C42  160A  118A  200A  120A  158A  	fcall	stringdir
  3874  0C47  00C8               	movwf	??_scale+6
  3875  0C48  160A  118A  200A  120A  158A  	fcall	stringdir
  3876  0C4D  00C9               	movwf	??_scale+7
  3877  0C4E  160A  118A  200A  120A  158A  	fcall	stringdir
  3878  0C53  00CA               	movwf	??_scale+8
  3879  0C54  160A  118A  200A  120A  158A  	fcall	stringdir
  3880  0C59  00CB               	movwf	??_scale+9
  3881  0C5A  084B               	movf	??_scale+9,w
  3882  0C5B  00AB               	movwf	___flmul@a+3
  3883  0C5C  084A               	movf	??_scale+8,w
  3884  0C5D  00AA               	movwf	___flmul@a+2
  3885  0C5E  0849               	movf	??_scale+7,w
  3886  0C5F  00A9               	movwf	___flmul@a+1
  3887  0C60  0848               	movf	??_scale+6,w
  3888  0C61  00A8               	movwf	___flmul@a
  3889  0C62  120A  158A  249F  120A  158A  	fcall	___flmul
  3890  0C67  1283               	bcf	3,5	;RP0=0, select bank0
  3891  0C68  1303               	bcf	3,6	;RP1=0, select bank0
  3892  0C69  0827               	movf	?___flmul+3,w
  3893  0C6A  00C1               	movwf	?_scale+3
  3894  0C6B  0826               	movf	?___flmul+2,w
  3895  0C6C  00C0               	movwf	?_scale+2
  3896  0C6D  0825               	movf	?___flmul+1,w
  3897  0C6E  00BF               	movwf	?_scale+1
  3898  0C6F  0824               	movf	?___flmul,w
  3899  0C70  00BE               	movwf	?_scale
  3900  0C71  2C9E               	goto	l203
  3901  0C72                     l2681:	
  3902                           
  3903                           ;C:\Program Files (x86)\Microchip\xc8\v2.10\pic\sources\c90\common\doprnt.c: 448:  retur
      +                          n _powers_[(unsigned char)scl];
  3904  0C72  0850               	movf	scale@scl,w
  3905  0C73  00C2               	movwf	??_scale
  3906  0C74  3001               	movlw	1
  3907  0C75                     u4385:	
  3908  0C75  1003               	clrc
  3909  0C76  0DC2               	rlf	??_scale,f
  3910  0C77  3EFF               	addlw	-1
  3911  0C78  1D03               	skipz
  3912  0C79  2C75               	goto	u4385
  3913  0C7A  1003               	clrc
  3914  0C7B  0D42               	rlf	??_scale,w
  3915  0C7C  3E01               	addlw	low ((__powers_-__stringbase)| (0+32768))
  3916  0C7D  0084               	movwf	4
  3917  0C7E  160A  118A  200A  120A  158A  	fcall	stringdir
  3918  0C83  00C3               	movwf	??_scale+1
  3919  0C84  160A  118A  200A  120A  158A  	fcall	stringdir
  3920  0C89  00C4               	movwf	??_scale+2
  3921  0C8A  160A  118A  200A  120A  158A  	fcall	stringdir
  3922  0C8F  00C5               	movwf	??_scale+3
  3923  0C90  160A  118A  200A  120A  158A  	fcall	stringdir
  3924  0C95  00C6               	movwf	??_scale+4
  3925  0C96  0846               	movf	??_scale+4,w
  3926  0C97  00C1               	movwf	?_scale+3
  3927  0C98  0845               	movf	??_scale+3,w
  3928  0C99  00C0               	movwf	?_scale+2
  3929  0C9A  0844               	movf	??_scale+2,w
  3930  0C9B  00BF               	movwf	?_scale+1
  3931  0C9C  0843               	movf	??_scale+1,w
  3932  0C9D  00BE               	movwf	?_scale
  3933  0C9E                     l203:	
  3934  0C9E  0008               	return
  3935  0C9F                     __end_of_scale:	
  3936                           
  3937                           	psect	text5
  3938  1E5C                     __ptext5:	
  3939 ;; *************** function ___awmod *****************
  3940 ;; Defined at:
  3941 ;;		line 5 in file "C:\Program Files (x86)\Microchip\xc8\v2.10\pic\sources\c90\common\awmod.c"
  3942 ;; Parameters:    Size  Location     Type
  3943 ;;  divisor         2    0[COMMON] int 
  3944 ;;  dividend        2    2[COMMON] int 
  3945 ;; Auto vars:     Size  Location     Type
  3946 ;;  sign            1    6[COMMON] unsigned char 
  3947 ;;  counter         1    5[COMMON] unsigned char 
  3948 ;; Return value:  Size  Location     Type
  3949 ;;                  2    0[COMMON] int 
  3950 ;; Registers used:
  3951 ;;		wreg, status,2, status,0
  3952 ;; Tracked objects:
  3953 ;;		On entry : 0/0
  3954 ;;		On exit  : 0/0
  3955 ;;		Unchanged: 0/0
  3956 ;; Data sizes:     COMMON   BANK0   BANK1   BANK3   BANK2
  3957 ;;      Params:         4       0       0       0       0
  3958 ;;      Locals:         2       0       0       0       0
  3959 ;;      Temps:          1       0       0       0       0
  3960 ;;      Totals:         7       0       0       0       0
  3961 ;;Total ram usage:        7 bytes
  3962 ;; Hardware stack levels used:    1
  3963 ;; This function calls:
  3964 ;;		Nothing
  3965 ;; This function is called by:
  3966 ;;		_scale
  3967 ;; This function uses a non-reentrant model
  3968 ;;
  3969                           
  3970                           
  3971                           ;psect for function ___awmod
  3972  1E5C                     ___awmod:	
  3973  1E5C                     l2181:	
  3974                           ;incstack = 0
  3975                           ; Regs used in ___awmod: [wreg+status,2+status,0]
  3976                           
  3977  1E5C  01F6               	clrf	___awmod@sign
  3978  1E5D                     l2183:	
  3979  1E5D  1FF3               	btfss	___awmod@dividend+1,7
  3980  1E5E  2E60               	goto	u3081
  3981  1E5F  2E61               	goto	u3080
  3982  1E60                     u3081:	
  3983  1E60  2E68               	goto	l2189
  3984  1E61                     u3080:	
  3985  1E61                     l2185:	
  3986  1E61  09F2               	comf	___awmod@dividend,f
  3987  1E62  09F3               	comf	___awmod@dividend+1,f
  3988  1E63  0AF2               	incf	___awmod@dividend,f
  3989  1E64  1903               	skipnz
  3990  1E65  0AF3               	incf	___awmod@dividend+1,f
  3991  1E66                     l2187:	
  3992  1E66  01F6               	clrf	___awmod@sign
  3993  1E67  0AF6               	incf	___awmod@sign,f
  3994  1E68                     l2189:	
  3995  1E68  1FF1               	btfss	___awmod@divisor+1,7
  3996  1E69  2E6B               	goto	u3091
  3997  1E6A  2E6C               	goto	u3090
  3998  1E6B                     u3091:	
  3999  1E6B  2E71               	goto	l2193
  4000  1E6C                     u3090:	
  4001  1E6C                     l2191:	
  4002  1E6C  09F0               	comf	___awmod@divisor,f
  4003  1E6D  09F1               	comf	___awmod@divisor+1,f
  4004  1E6E  0AF0               	incf	___awmod@divisor,f
  4005  1E6F  1903               	skipnz
  4006  1E70  0AF1               	incf	___awmod@divisor+1,f
  4007  1E71                     l2193:	
  4008  1E71  0870               	movf	___awmod@divisor,w
  4009  1E72  0471               	iorwf	___awmod@divisor+1,w
  4010  1E73  1903               	btfsc	3,2
  4011  1E74  2E76               	goto	u3101
  4012  1E75  2E77               	goto	u3100
  4013  1E76                     u3101:	
  4014  1E76  2EA6               	goto	l2211
  4015  1E77                     u3100:	
  4016  1E77                     l2195:	
  4017  1E77  01F5               	clrf	___awmod@counter
  4018  1E78  0AF5               	incf	___awmod@counter,f
  4019  1E79  2E85               	goto	l2201
  4020  1E7A                     l2197:	
  4021  1E7A  3001               	movlw	1
  4022  1E7B                     u3115:	
  4023  1E7B  1003               	clrc
  4024  1E7C  0DF0               	rlf	___awmod@divisor,f
  4025  1E7D  0DF1               	rlf	___awmod@divisor+1,f
  4026  1E7E  3EFF               	addlw	-1
  4027  1E7F  1D03               	skipz
  4028  1E80  2E7B               	goto	u3115
  4029  1E81                     l2199:	
  4030  1E81  3001               	movlw	1
  4031  1E82  00F4               	movwf	??___awmod
  4032  1E83  0874               	movf	??___awmod,w
  4033  1E84  07F5               	addwf	___awmod@counter,f
  4034  1E85                     l2201:	
  4035  1E85  1FF1               	btfss	___awmod@divisor+1,7
  4036  1E86  2E88               	goto	u3121
  4037  1E87  2E89               	goto	u3120
  4038  1E88                     u3121:	
  4039  1E88  2E7A               	goto	l2197
  4040  1E89                     u3120:	
  4041  1E89                     l2203:	
  4042  1E89  0871               	movf	___awmod@divisor+1,w
  4043  1E8A  0273               	subwf	___awmod@dividend+1,w
  4044  1E8B  1D03               	skipz
  4045  1E8C  2E8F               	goto	u3135
  4046  1E8D  0870               	movf	___awmod@divisor,w
  4047  1E8E  0272               	subwf	___awmod@dividend,w
  4048  1E8F                     u3135:	
  4049  1E8F  1C03               	skipc
  4050  1E90  2E92               	goto	u3131
  4051  1E91  2E93               	goto	u3130
  4052  1E92                     u3131:	
  4053  1E92  2E99               	goto	l2207
  4054  1E93                     u3130:	
  4055  1E93                     l2205:	
  4056  1E93  0870               	movf	___awmod@divisor,w
  4057  1E94  02F2               	subwf	___awmod@dividend,f
  4058  1E95  0871               	movf	___awmod@divisor+1,w
  4059  1E96  1C03               	skipc
  4060  1E97  03F3               	decf	___awmod@dividend+1,f
  4061  1E98  02F3               	subwf	___awmod@dividend+1,f
  4062  1E99                     l2207:	
  4063  1E99  3001               	movlw	1
  4064  1E9A                     u3145:	
  4065  1E9A  1003               	clrc
  4066  1E9B  0CF1               	rrf	___awmod@divisor+1,f
  4067  1E9C  0CF0               	rrf	___awmod@divisor,f
  4068  1E9D  3EFF               	addlw	-1
  4069  1E9E  1D03               	skipz
  4070  1E9F  2E9A               	goto	u3145
  4071  1EA0                     l2209:	
  4072  1EA0  3001               	movlw	1
  4073  1EA1  02F5               	subwf	___awmod@counter,f
  4074  1EA2  1D03               	btfss	3,2
  4075  1EA3  2EA5               	goto	u3151
  4076  1EA4  2EA6               	goto	u3150
  4077  1EA5                     u3151:	
  4078  1EA5  2E89               	goto	l2203
  4079  1EA6                     u3150:	
  4080  1EA6                     l2211:	
  4081  1EA6  0876               	movf	___awmod@sign,w
  4082  1EA7  1903               	btfsc	3,2
  4083  1EA8  2EAA               	goto	u3161
  4084  1EA9  2EAB               	goto	u3160
  4085  1EAA                     u3161:	
  4086  1EAA  2EB0               	goto	l2215
  4087  1EAB                     u3160:	
  4088  1EAB                     l2213:	
  4089  1EAB  09F2               	comf	___awmod@dividend,f
  4090  1EAC  09F3               	comf	___awmod@dividend+1,f
  4091  1EAD  0AF2               	incf	___awmod@dividend,f
  4092  1EAE  1903               	skipnz
  4093  1EAF  0AF3               	incf	___awmod@dividend+1,f
  4094  1EB0                     l2215:	
  4095  1EB0  0873               	movf	___awmod@dividend+1,w
  4096  1EB1  00F1               	movwf	?___awmod+1
  4097  1EB2  0872               	movf	___awmod@dividend,w
  4098  1EB3  00F0               	movwf	?___awmod
  4099  1EB4                     l429:	
  4100  1EB4  0008               	return
  4101  1EB5                     __end_of___awmod:	
  4102                           
  4103                           	psect	text6
  4104  1F1B                     __ptext6:	
  4105 ;; *************** function ___awdiv *****************
  4106 ;; Defined at:
  4107 ;;		line 5 in file "C:\Program Files (x86)\Microchip\xc8\v2.10\pic\sources\c90\common\awdiv.c"
  4108 ;; Parameters:    Size  Location     Type
  4109 ;;  divisor         2    7[COMMON] int 
  4110 ;;  dividend        2    9[COMMON] int 
  4111 ;; Auto vars:     Size  Location     Type
  4112 ;;  quotient        2    2[BANK0 ] int 
  4113 ;;  sign            1    1[BANK0 ] unsigned char 
  4114 ;;  counter         1    0[BANK0 ] unsigned char 
  4115 ;; Return value:  Size  Location     Type
  4116 ;;                  2    7[COMMON] int 
  4117 ;; Registers used:
  4118 ;;		wreg, status,2, status,0
  4119 ;; Tracked objects:
  4120 ;;		On entry : 0/0
  4121 ;;		On exit  : 0/0
  4122 ;;		Unchanged: 0/0
  4123 ;; Data sizes:     COMMON   BANK0   BANK1   BANK3   BANK2
  4124 ;;      Params:         4       0       0       0       0
  4125 ;;      Locals:         0       4       0       0       0
  4126 ;;      Temps:          1       0       0       0       0
  4127 ;;      Totals:         5       4       0       0       0
  4128 ;;Total ram usage:        9 bytes
  4129 ;; Hardware stack levels used:    1
  4130 ;; This function calls:
  4131 ;;		Nothing
  4132 ;; This function is called by:
  4133 ;;		_scale
  4134 ;;		_sprintf
  4135 ;; This function uses a non-reentrant model
  4136 ;;
  4137                           
  4138                           
  4139                           ;psect for function ___awdiv
  4140  1F1B                     ___awdiv:	
  4141  1F1B                     l2137:	
  4142                           ;incstack = 0
  4143                           ; Regs used in ___awdiv: [wreg+status,2+status,0]
  4144                           
  4145  1F1B  1283               	bcf	3,5	;RP0=0, select bank0
  4146  1F1C  1303               	bcf	3,6	;RP1=0, select bank0
  4147  1F1D  01A1               	clrf	___awdiv@sign
  4148  1F1E                     l2139:	
  4149  1F1E  1FF8               	btfss	___awdiv@divisor+1,7
  4150  1F1F  2F21               	goto	u2981
  4151  1F20  2F22               	goto	u2980
  4152  1F21                     u2981:	
  4153  1F21  2F29               	goto	l2145
  4154  1F22                     u2980:	
  4155  1F22                     l2141:	
  4156  1F22  09F7               	comf	___awdiv@divisor,f
  4157  1F23  09F8               	comf	___awdiv@divisor+1,f
  4158  1F24  0AF7               	incf	___awdiv@divisor,f
  4159  1F25  1903               	skipnz
  4160  1F26  0AF8               	incf	___awdiv@divisor+1,f
  4161  1F27                     l2143:	
  4162  1F27  01A1               	clrf	___awdiv@sign
  4163  1F28  0AA1               	incf	___awdiv@sign,f
  4164  1F29                     l2145:	
  4165  1F29  1FFA               	btfss	___awdiv@dividend+1,7
  4166  1F2A  2F2C               	goto	u2991
  4167  1F2B  2F2D               	goto	u2990
  4168  1F2C                     u2991:	
  4169  1F2C  2F36               	goto	l2151
  4170  1F2D                     u2990:	
  4171  1F2D                     l2147:	
  4172  1F2D  09F9               	comf	___awdiv@dividend,f
  4173  1F2E  09FA               	comf	___awdiv@dividend+1,f
  4174  1F2F  0AF9               	incf	___awdiv@dividend,f
  4175  1F30  1903               	skipnz
  4176  1F31  0AFA               	incf	___awdiv@dividend+1,f
  4177  1F32                     l2149:	
  4178  1F32  3001               	movlw	1
  4179  1F33  00FB               	movwf	??___awdiv
  4180  1F34  087B               	movf	??___awdiv,w
  4181  1F35  06A1               	xorwf	___awdiv@sign,f
  4182  1F36                     l2151:	
  4183  1F36  01A2               	clrf	___awdiv@quotient
  4184  1F37  01A3               	clrf	___awdiv@quotient+1
  4185  1F38                     l2153:	
  4186  1F38  0877               	movf	___awdiv@divisor,w
  4187  1F39  0478               	iorwf	___awdiv@divisor+1,w
  4188  1F3A  1903               	btfsc	3,2
  4189  1F3B  2F3D               	goto	u3001
  4190  1F3C  2F3E               	goto	u3000
  4191  1F3D                     u3001:	
  4192  1F3D  2F75               	goto	l2173
  4193  1F3E                     u3000:	
  4194  1F3E                     l2155:	
  4195  1F3E  01A0               	clrf	___awdiv@counter
  4196  1F3F  0AA0               	incf	___awdiv@counter,f
  4197  1F40  2F4C               	goto	l2161
  4198  1F41                     l2157:	
  4199  1F41  3001               	movlw	1
  4200  1F42                     u3015:	
  4201  1F42  1003               	clrc
  4202  1F43  0DF7               	rlf	___awdiv@divisor,f
  4203  1F44  0DF8               	rlf	___awdiv@divisor+1,f
  4204  1F45  3EFF               	addlw	-1
  4205  1F46  1D03               	skipz
  4206  1F47  2F42               	goto	u3015
  4207  1F48                     l2159:	
  4208  1F48  3001               	movlw	1
  4209  1F49  00FB               	movwf	??___awdiv
  4210  1F4A  087B               	movf	??___awdiv,w
  4211  1F4B  07A0               	addwf	___awdiv@counter,f
  4212  1F4C                     l2161:	
  4213  1F4C  1FF8               	btfss	___awdiv@divisor+1,7
  4214  1F4D  2F4F               	goto	u3021
  4215  1F4E  2F50               	goto	u3020
  4216  1F4F                     u3021:	
  4217  1F4F  2F41               	goto	l2157
  4218  1F50                     u3020:	
  4219  1F50                     l2163:	
  4220  1F50  3001               	movlw	1
  4221  1F51                     u3035:	
  4222  1F51  1003               	clrc
  4223  1F52  0DA2               	rlf	___awdiv@quotient,f
  4224  1F53  0DA3               	rlf	___awdiv@quotient+1,f
  4225  1F54  3EFF               	addlw	-1
  4226  1F55  1D03               	skipz
  4227  1F56  2F51               	goto	u3035
  4228  1F57  0878               	movf	___awdiv@divisor+1,w
  4229  1F58  027A               	subwf	___awdiv@dividend+1,w
  4230  1F59  1D03               	skipz
  4231  1F5A  2F5D               	goto	u3045
  4232  1F5B  0877               	movf	___awdiv@divisor,w
  4233  1F5C  0279               	subwf	___awdiv@dividend,w
  4234  1F5D                     u3045:	
  4235  1F5D  1C03               	skipc
  4236  1F5E  2F60               	goto	u3041
  4237  1F5F  2F61               	goto	u3040
  4238  1F60                     u3041:	
  4239  1F60  2F68               	goto	l2169
  4240  1F61                     u3040:	
  4241  1F61                     l2165:	
  4242  1F61  0877               	movf	___awdiv@divisor,w
  4243  1F62  02F9               	subwf	___awdiv@dividend,f
  4244  1F63  0878               	movf	___awdiv@divisor+1,w
  4245  1F64  1C03               	skipc
  4246  1F65  03FA               	decf	___awdiv@dividend+1,f
  4247  1F66  02FA               	subwf	___awdiv@dividend+1,f
  4248  1F67                     l2167:	
  4249  1F67  1422               	bsf	___awdiv@quotient,0
  4250  1F68                     l2169:	
  4251  1F68  3001               	movlw	1
  4252  1F69                     u3055:	
  4253  1F69  1003               	clrc
  4254  1F6A  0CF8               	rrf	___awdiv@divisor+1,f
  4255  1F6B  0CF7               	rrf	___awdiv@divisor,f
  4256  1F6C  3EFF               	addlw	-1
  4257  1F6D  1D03               	skipz
  4258  1F6E  2F69               	goto	u3055
  4259  1F6F                     l2171:	
  4260  1F6F  3001               	movlw	1
  4261  1F70  02A0               	subwf	___awdiv@counter,f
  4262  1F71  1D03               	btfss	3,2
  4263  1F72  2F74               	goto	u3061
  4264  1F73  2F75               	goto	u3060
  4265  1F74                     u3061:	
  4266  1F74  2F50               	goto	l2163
  4267  1F75                     u3060:	
  4268  1F75                     l2173:	
  4269  1F75  0821               	movf	___awdiv@sign,w
  4270  1F76  1903               	btfsc	3,2
  4271  1F77  2F79               	goto	u3071
  4272  1F78  2F7A               	goto	u3070
  4273  1F79                     u3071:	
  4274  1F79  2F7F               	goto	l2177
  4275  1F7A                     u3070:	
  4276  1F7A                     l2175:	
  4277  1F7A  09A2               	comf	___awdiv@quotient,f
  4278  1F7B  09A3               	comf	___awdiv@quotient+1,f
  4279  1F7C  0AA2               	incf	___awdiv@quotient,f
  4280  1F7D  1903               	skipnz
  4281  1F7E  0AA3               	incf	___awdiv@quotient+1,f
  4282  1F7F                     l2177:	
  4283  1F7F  0823               	movf	___awdiv@quotient+1,w
  4284  1F80  00F8               	movwf	?___awdiv+1
  4285  1F81  0822               	movf	___awdiv@quotient,w
  4286  1F82  00F7               	movwf	?___awdiv
  4287  1F83                     l416:	
  4288  1F83  0008               	return
  4289  1F84                     __end_of___awdiv:	
  4290                           
  4291                           	psect	text7
  4292  002E                     __ptext7:	
  4293 ;; *************** function _fround *****************
  4294 ;; Defined at:
  4295 ;;		line 417 in file "C:\Program Files (x86)\Microchip\xc8\v2.10\pic\sources\c90\common\doprnt.c"
  4296 ;; Parameters:    Size  Location     Type
  4297 ;;  prec            1    wreg     unsigned char 
  4298 ;; Auto vars:     Size  Location     Type
  4299 ;;  prec            1   49[BANK0 ] unsigned char 
  4300 ;; Return value:  Size  Location     Type
  4301 ;;                  4   30[BANK0 ] unsigned char 
  4302 ;; Registers used:
  4303 ;;		wreg, fsr0l, fsr0h, status,2, status,0, btemp+1, pclath, cstack
  4304 ;; Tracked objects:
  4305 ;;		On entry : 0/0
  4306 ;;		On exit  : 0/0
  4307 ;;		Unchanged: 0/0
  4308 ;; Data sizes:     COMMON   BANK0   BANK1   BANK3   BANK2
  4309 ;;      Params:         0       4       0       0       0
  4310 ;;      Locals:         0       9       0       0       0
  4311 ;;      Temps:          0       7       0       0       0
  4312 ;;      Totals:         0      20       0       0       0
  4313 ;;Total ram usage:       20 bytes
  4314 ;; Hardware stack levels used:    1
  4315 ;; Hardware stack levels required when called:    2
  4316 ;; This function calls:
  4317 ;;		___flmul
  4318 ;;		___lwdiv
  4319 ;;		___lwmod
  4320 ;; This function is called by:
  4321 ;;		_sprintf
  4322 ;; This function uses a non-reentrant model
  4323 ;;
  4324                           
  4325                           
  4326                           ;psect for function _fround
  4327  002E                     _fround:	
  4328                           
  4329                           ;incstack = 0
  4330                           ; Regs used in _fround: [wreg-fsr0h+status,2+status,0+btemp+1+pclath+cstack]
  4331                           ;fround@prec stored from wreg
  4332  002E  1283               	bcf	3,5	;RP0=0, select bank0
  4333  002F  1303               	bcf	3,6	;RP1=0, select bank0
  4334  0030  00D1               	movwf	fround@prec
  4335  0031                     l2627:	
  4336                           
  4337                           ;C:\Program Files (x86)\Microchip\xc8\v2.10\pic\sources\c90\common\doprnt.c: 417: fround
      +                          (unsigned char prec);C:\Program Files (x86)\Microchip\xc8\v2.10\pic\sources\c90\common\d
      +                          oprnt.c: 418: {;C:\Program Files (x86)\Microchip\xc8\v2.10\pic\sources\c90\common\doprnt
      +                          .c: 421:  if(prec>=110)
  4338  0031  306E               	movlw	110
  4339  0032  0251               	subwf	fround@prec,w
  4340  0033  1C03               	skipc
  4341  0034  2836               	goto	u4141
  4342  0035  2837               	goto	u4140
  4343  0036                     u4141:	
  4344  0036  2944               	goto	l2635
  4345  0037                     u4140:	
  4346  0037                     l2629:	
  4347                           
  4348                           ;C:\Program Files (x86)\Microchip\xc8\v2.10\pic\sources\c90\common\doprnt.c: 422:   retu
      +                          rn 0.5 * _npowers_[prec/100U+18U] * _npowers_[(prec%100U)/10U+9U] * _npowers_[prec%10U];
  4349  0037  303F               	movlw	63
  4350  0038  00A7               	movwf	___flmul@b+3
  4351  0039  3000               	movlw	0
  4352  003A  00A6               	movwf	___flmul@b+2
  4353  003B  3000               	movlw	0
  4354  003C  00A5               	movwf	___flmul@b+1
  4355  003D  3000               	movlw	0
  4356  003E  00A4               	movwf	___flmul@b
  4357  003F  3064               	movlw	100
  4358  0040  00F6               	movwf	___lwdiv@divisor
  4359  0041  3000               	movlw	0
  4360  0042  00F7               	movwf	___lwdiv@divisor+1
  4361  0043  0851               	movf	fround@prec,w
  4362  0044  00C2               	movwf	??_fround
  4363  0045  01C3               	clrf	??_fround+1
  4364  0046  0842               	movf	??_fround,w
  4365  0047  00F8               	movwf	___lwdiv@dividend
  4366  0048  0843               	movf	??_fround+1,w
  4367  0049  00F9               	movwf	___lwdiv@dividend+1
  4368  004A  160A  158A  2524  120A  118A  	fcall	___lwdiv
  4369  004F  0876               	movf	?___lwdiv,w
  4370  0050  1283               	bcf	3,5	;RP0=0, select bank0
  4371  0051  1303               	bcf	3,6	;RP1=0, select bank0
  4372  0052  00C4               	movwf	??_fround+2
  4373  0053  3001               	movlw	1
  4374  0054                     u4155:	
  4375  0054  1003               	clrc
  4376  0055  0DC4               	rlf	??_fround+2,f
  4377  0056  3EFF               	addlw	-1
  4378  0057  1D03               	skipz
  4379  0058  2854               	goto	u4155
  4380  0059  1003               	clrc
  4381  005A  0D44               	rlf	??_fround+2,w
  4382  005B  3E7D               	addlw	low (((__npowers_-__stringbase)| (0+32768)+72))
  4383  005C  0084               	movwf	4
  4384  005D  160A  118A  200A  120A  118A  	fcall	stringdir
  4385  0062  00C5               	movwf	??_fround+3
  4386  0063  160A  118A  200A  120A  118A  	fcall	stringdir
  4387  0068  00C6               	movwf	??_fround+4
  4388  0069  160A  118A  200A  120A  118A  	fcall	stringdir
  4389  006E  00C7               	movwf	??_fround+5
  4390  006F  160A  118A  200A  120A  118A  	fcall	stringdir
  4391  0074  00C8               	movwf	??_fround+6
  4392  0075  0848               	movf	??_fround+6,w
  4393  0076  00AB               	movwf	___flmul@a+3
  4394  0077  0847               	movf	??_fround+5,w
  4395  0078  00AA               	movwf	___flmul@a+2
  4396  0079  0846               	movf	??_fround+4,w
  4397  007A  00A9               	movwf	___flmul@a+1
  4398  007B  0845               	movf	??_fround+3,w
  4399  007C  00A8               	movwf	___flmul@a
  4400  007D  120A  158A  249F  120A  118A  	fcall	___flmul
  4401  0082  1283               	bcf	3,5	;RP0=0, select bank0
  4402  0083  1303               	bcf	3,6	;RP1=0, select bank0
  4403  0084  0827               	movf	?___flmul+3,w
  4404  0085  00D0               	movwf	_fround$777+3
  4405  0086  0826               	movf	?___flmul+2,w
  4406  0087  00CF               	movwf	_fround$777+2
  4407  0088  0825               	movf	?___flmul+1,w
  4408  0089  00CE               	movwf	_fround$777+1
  4409  008A  0824               	movf	?___flmul,w
  4410  008B  00CD               	movwf	_fround$777
  4411                           
  4412                           ;C:\Program Files (x86)\Microchip\xc8\v2.10\pic\sources\c90\common\doprnt.c: 422:   retu
      +                          rn 0.5 * _npowers_[prec/100U+18U] * _npowers_[(prec%100U)/10U+9U] * _npowers_[prec%10U];
  4413  008C  300A               	movlw	10
  4414  008D  00F6               	movwf	___lwdiv@divisor
  4415  008E  3000               	movlw	0
  4416  008F  00F7               	movwf	___lwdiv@divisor+1
  4417  0090  0851               	movf	fround@prec,w
  4418  0091  00C2               	movwf	??_fround
  4419  0092  01C3               	clrf	??_fround+1
  4420  0093  0842               	movf	??_fround,w
  4421  0094  00F2               	movwf	___lwmod@dividend
  4422  0095  0843               	movf	??_fround+1,w
  4423  0096  00F3               	movwf	___lwmod@dividend+1
  4424  0097  3064               	movlw	100
  4425  0098  00F0               	movwf	___lwmod@divisor
  4426  0099  3000               	movlw	0
  4427  009A  00F1               	movwf	___lwmod@divisor+1
  4428  009B  160A  158A  246B  120A  118A  	fcall	___lwmod
  4429  00A0  0871               	movf	?___lwmod+1,w
  4430  00A1  00F9               	movwf	___lwdiv@dividend+1
  4431  00A2  0870               	movf	?___lwmod,w
  4432  00A3  00F8               	movwf	___lwdiv@dividend
  4433  00A4  160A  158A  2524  120A  118A  	fcall	___lwdiv
  4434  00A9  0876               	movf	?___lwdiv,w
  4435  00AA  1283               	bcf	3,5	;RP0=0, select bank0
  4436  00AB  1303               	bcf	3,6	;RP1=0, select bank0
  4437  00AC  00C4               	movwf	??_fround+2
  4438  00AD  3001               	movlw	1
  4439  00AE                     u4165:	
  4440  00AE  1003               	clrc
  4441  00AF  0DC4               	rlf	??_fround+2,f
  4442  00B0  3EFF               	addlw	-1
  4443  00B1  1D03               	skipz
  4444  00B2  28AE               	goto	u4165
  4445  00B3  1003               	clrc
  4446  00B4  0D44               	rlf	??_fround+2,w
  4447  00B5  3E59               	addlw	low (((__npowers_-__stringbase)| (0+32768)+36))
  4448  00B6  0084               	movwf	4
  4449  00B7  160A  118A  200A  120A  118A  	fcall	stringdir
  4450  00BC  00C5               	movwf	??_fround+3
  4451  00BD  160A  118A  200A  120A  118A  	fcall	stringdir
  4452  00C2  00C6               	movwf	??_fround+4
  4453  00C3  160A  118A  200A  120A  118A  	fcall	stringdir
  4454  00C8  00C7               	movwf	??_fround+5
  4455  00C9  160A  118A  200A  120A  118A  	fcall	stringdir
  4456  00CE  00C8               	movwf	??_fround+6
  4457  00CF  0848               	movf	??_fround+6,w
  4458  00D0  00A7               	movwf	___flmul@b+3
  4459  00D1  0847               	movf	??_fround+5,w
  4460  00D2  00A6               	movwf	___flmul@b+2
  4461  00D3  0846               	movf	??_fround+4,w
  4462  00D4  00A5               	movwf	___flmul@b+1
  4463  00D5  0845               	movf	??_fround+3,w
  4464  00D6  00A4               	movwf	___flmul@b
  4465  00D7  0850               	movf	_fround$777+3,w
  4466  00D8  00AB               	movwf	___flmul@a+3
  4467  00D9  084F               	movf	_fround$777+2,w
  4468  00DA  00AA               	movwf	___flmul@a+2
  4469  00DB  084E               	movf	_fround$777+1,w
  4470  00DC  00A9               	movwf	___flmul@a+1
  4471  00DD  084D               	movf	_fround$777,w
  4472  00DE  00A8               	movwf	___flmul@a
  4473  00DF  120A  158A  249F  120A  118A  	fcall	___flmul
  4474  00E4  1283               	bcf	3,5	;RP0=0, select bank0
  4475  00E5  1303               	bcf	3,6	;RP1=0, select bank0
  4476  00E6  0827               	movf	?___flmul+3,w
  4477  00E7  00CC               	movwf	_fround$778+3
  4478  00E8  0826               	movf	?___flmul+2,w
  4479  00E9  00CB               	movwf	_fround$778+2
  4480  00EA  0825               	movf	?___flmul+1,w
  4481  00EB  00CA               	movwf	_fround$778+1
  4482  00EC  0824               	movf	?___flmul,w
  4483  00ED  00C9               	movwf	_fround$778
  4484                           
  4485                           ;C:\Program Files (x86)\Microchip\xc8\v2.10\pic\sources\c90\common\doprnt.c: 422:   retu
      +                          rn 0.5 * _npowers_[prec/100U+18U] * _npowers_[(prec%100U)/10U+9U] * _npowers_[prec%10U];
  4486  00EE  300A               	movlw	10
  4487  00EF  00F0               	movwf	___lwmod@divisor
  4488  00F0  3000               	movlw	0
  4489  00F1  00F1               	movwf	___lwmod@divisor+1
  4490  00F2  0851               	movf	fround@prec,w
  4491  00F3  00C2               	movwf	??_fround
  4492  00F4  01C3               	clrf	??_fround+1
  4493  00F5  0842               	movf	??_fround,w
  4494  00F6  00F2               	movwf	___lwmod@dividend
  4495  00F7  0843               	movf	??_fround+1,w
  4496  00F8  00F3               	movwf	___lwmod@dividend+1
  4497  00F9  160A  158A  246B  120A  118A  	fcall	___lwmod
  4498  00FE  0870               	movf	?___lwmod,w
  4499  00FF  1283               	bcf	3,5	;RP0=0, select bank0
  4500  0100  1303               	bcf	3,6	;RP1=0, select bank0
  4501  0101  00C4               	movwf	??_fround+2
  4502  0102  3001               	movlw	1
  4503  0103                     u4175:	
  4504  0103  1003               	clrc
  4505  0104  0DC4               	rlf	??_fround+2,f
  4506  0105  3EFF               	addlw	-1
  4507  0106  1D03               	skipz
  4508  0107  2903               	goto	u4175
  4509  0108  1003               	clrc
  4510  0109  0D44               	rlf	??_fround+2,w
  4511  010A  3E35               	addlw	low ((__npowers_-__stringbase)| (0+32768))
  4512  010B  0084               	movwf	4
  4513  010C  160A  118A  200A  120A  118A  	fcall	stringdir
  4514  0111  00C5               	movwf	??_fround+3
  4515  0112  160A  118A  200A  120A  118A  	fcall	stringdir
  4516  0117  00C6               	movwf	??_fround+4
  4517  0118  160A  118A  200A  120A  118A  	fcall	stringdir
  4518  011D  00C7               	movwf	??_fround+5
  4519  011E  160A  118A  200A  120A  118A  	fcall	stringdir
  4520  0123  00C8               	movwf	??_fround+6
  4521  0124  0848               	movf	??_fround+6,w
  4522  0125  00A7               	movwf	___flmul@b+3
  4523  0126  0847               	movf	??_fround+5,w
  4524  0127  00A6               	movwf	___flmul@b+2
  4525  0128  0846               	movf	??_fround+4,w
  4526  0129  00A5               	movwf	___flmul@b+1
  4527  012A  0845               	movf	??_fround+3,w
  4528  012B  00A4               	movwf	___flmul@b
  4529  012C  084C               	movf	_fround$778+3,w
  4530  012D  00AB               	movwf	___flmul@a+3
  4531  012E  084B               	movf	_fround$778+2,w
  4532  012F  00AA               	movwf	___flmul@a+2
  4533  0130  084A               	movf	_fround$778+1,w
  4534  0131  00A9               	movwf	___flmul@a+1
  4535  0132  0849               	movf	_fround$778,w
  4536  0133  00A8               	movwf	___flmul@a
  4537  0134  120A  158A  249F  120A  118A  	fcall	___flmul
  4538  0139  1283               	bcf	3,5	;RP0=0, select bank0
  4539  013A  1303               	bcf	3,6	;RP1=0, select bank0
  4540  013B  0827               	movf	?___flmul+3,w
  4541  013C  00C1               	movwf	?_fround+3
  4542  013D  0826               	movf	?___flmul+2,w
  4543  013E  00C0               	movwf	?_fround+2
  4544  013F  0825               	movf	?___flmul+1,w
  4545  0140  00BF               	movwf	?_fround+1
  4546  0141  0824               	movf	?___flmul,w
  4547  0142  00BE               	movwf	?_fround
  4548  0143  2A38               	goto	l196
  4549  0144                     l2635:	
  4550  0144  300B               	movlw	11
  4551  0145  0251               	subwf	fround@prec,w
  4552  0146  1C03               	skipc
  4553  0147  2949               	goto	u4181
  4554  0148  294A               	goto	u4180
  4555  0149                     u4181:	
  4556  0149  29F5               	goto	l2641
  4557  014A                     u4180:	
  4558  014A                     l2637:	
  4559                           
  4560                           ;C:\Program Files (x86)\Microchip\xc8\v2.10\pic\sources\c90\common\doprnt.c: 424:   retu
      +                          rn 0.5 * _npowers_[prec/10U+9U] * _npowers_[prec%10U];
  4561  014A  303F               	movlw	63
  4562  014B  00A7               	movwf	___flmul@b+3
  4563  014C  3000               	movlw	0
  4564  014D  00A6               	movwf	___flmul@b+2
  4565  014E  3000               	movlw	0
  4566  014F  00A5               	movwf	___flmul@b+1
  4567  0150  3000               	movlw	0
  4568  0151  00A4               	movwf	___flmul@b
  4569  0152  300A               	movlw	10
  4570  0153  00F6               	movwf	___lwdiv@divisor
  4571  0154  3000               	movlw	0
  4572  0155  00F7               	movwf	___lwdiv@divisor+1
  4573  0156  0851               	movf	fround@prec,w
  4574  0157  00C2               	movwf	??_fround
  4575  0158  01C3               	clrf	??_fround+1
  4576  0159  0842               	movf	??_fround,w
  4577  015A  00F8               	movwf	___lwdiv@dividend
  4578  015B  0843               	movf	??_fround+1,w
  4579  015C  00F9               	movwf	___lwdiv@dividend+1
  4580  015D  160A  158A  2524  120A  118A  	fcall	___lwdiv
  4581  0162  0876               	movf	?___lwdiv,w
  4582  0163  1283               	bcf	3,5	;RP0=0, select bank0
  4583  0164  1303               	bcf	3,6	;RP1=0, select bank0
  4584  0165  00C4               	movwf	??_fround+2
  4585  0166  3001               	movlw	1
  4586  0167                     u4195:	
  4587  0167  1003               	clrc
  4588  0168  0DC4               	rlf	??_fround+2,f
  4589  0169  3EFF               	addlw	-1
  4590  016A  1D03               	skipz
  4591  016B  2967               	goto	u4195
  4592  016C  1003               	clrc
  4593  016D  0D44               	rlf	??_fround+2,w
  4594  016E  3E59               	addlw	low (((__npowers_-__stringbase)| (0+32768)+36))
  4595  016F  0084               	movwf	4
  4596  0170  160A  118A  200A  120A  118A  	fcall	stringdir
  4597  0175  00C5               	movwf	??_fround+3
  4598  0176  160A  118A  200A  120A  118A  	fcall	stringdir
  4599  017B  00C6               	movwf	??_fround+4
  4600  017C  160A  118A  200A  120A  118A  	fcall	stringdir
  4601  0181  00C7               	movwf	??_fround+5
  4602  0182  160A  118A  200A  120A  118A  	fcall	stringdir
  4603  0187  00C8               	movwf	??_fround+6
  4604  0188  0848               	movf	??_fround+6,w
  4605  0189  00AB               	movwf	___flmul@a+3
  4606  018A  0847               	movf	??_fround+5,w
  4607  018B  00AA               	movwf	___flmul@a+2
  4608  018C  0846               	movf	??_fround+4,w
  4609  018D  00A9               	movwf	___flmul@a+1
  4610  018E  0845               	movf	??_fround+3,w
  4611  018F  00A8               	movwf	___flmul@a
  4612  0190  120A  158A  249F  120A  118A  	fcall	___flmul
  4613  0195  1283               	bcf	3,5	;RP0=0, select bank0
  4614  0196  1303               	bcf	3,6	;RP1=0, select bank0
  4615  0197  0827               	movf	?___flmul+3,w
  4616  0198  00D0               	movwf	_fround$777+3
  4617  0199  0826               	movf	?___flmul+2,w
  4618  019A  00CF               	movwf	_fround$777+2
  4619  019B  0825               	movf	?___flmul+1,w
  4620  019C  00CE               	movwf	_fround$777+1
  4621  019D  0824               	movf	?___flmul,w
  4622  019E  00CD               	movwf	_fround$777
  4623                           
  4624                           ;C:\Program Files (x86)\Microchip\xc8\v2.10\pic\sources\c90\common\doprnt.c: 424:   retu
      +                          rn 0.5 * _npowers_[prec/10U+9U] * _npowers_[prec%10U];
  4625  019F  300A               	movlw	10
  4626  01A0  00F0               	movwf	___lwmod@divisor
  4627  01A1  3000               	movlw	0
  4628  01A2  00F1               	movwf	___lwmod@divisor+1
  4629  01A3  0851               	movf	fround@prec,w
  4630  01A4  00C2               	movwf	??_fround
  4631  01A5  01C3               	clrf	??_fround+1
  4632  01A6  0842               	movf	??_fround,w
  4633  01A7  00F2               	movwf	___lwmod@dividend
  4634  01A8  0843               	movf	??_fround+1,w
  4635  01A9  00F3               	movwf	___lwmod@dividend+1
  4636  01AA  160A  158A  246B  120A  118A  	fcall	___lwmod
  4637  01AF  0870               	movf	?___lwmod,w
  4638  01B0  1283               	bcf	3,5	;RP0=0, select bank0
  4639  01B1  1303               	bcf	3,6	;RP1=0, select bank0
  4640  01B2  00C4               	movwf	??_fround+2
  4641  01B3  3001               	movlw	1
  4642  01B4                     u4205:	
  4643  01B4  1003               	clrc
  4644  01B5  0DC4               	rlf	??_fround+2,f
  4645  01B6  3EFF               	addlw	-1
  4646  01B7  1D03               	skipz
  4647  01B8  29B4               	goto	u4205
  4648  01B9  1003               	clrc
  4649  01BA  0D44               	rlf	??_fround+2,w
  4650  01BB  3E35               	addlw	low ((__npowers_-__stringbase)| (0+32768))
  4651  01BC  0084               	movwf	4
  4652  01BD  160A  118A  200A  120A  118A  	fcall	stringdir
  4653  01C2  00C5               	movwf	??_fround+3
  4654  01C3  160A  118A  200A  120A  118A  	fcall	stringdir
  4655  01C8  00C6               	movwf	??_fround+4
  4656  01C9  160A  118A  200A  120A  118A  	fcall	stringdir
  4657  01CE  00C7               	movwf	??_fround+5
  4658  01CF  160A  118A  200A  120A  118A  	fcall	stringdir
  4659  01D4  00C8               	movwf	??_fround+6
  4660  01D5  0848               	movf	??_fround+6,w
  4661  01D6  00A7               	movwf	___flmul@b+3
  4662  01D7  0847               	movf	??_fround+5,w
  4663  01D8  00A6               	movwf	___flmul@b+2
  4664  01D9  0846               	movf	??_fround+4,w
  4665  01DA  00A5               	movwf	___flmul@b+1
  4666  01DB  0845               	movf	??_fround+3,w
  4667  01DC  00A4               	movwf	___flmul@b
  4668  01DD  0850               	movf	_fround$777+3,w
  4669  01DE  00AB               	movwf	___flmul@a+3
  4670  01DF  084F               	movf	_fround$777+2,w
  4671  01E0  00AA               	movwf	___flmul@a+2
  4672  01E1  084E               	movf	_fround$777+1,w
  4673  01E2  00A9               	movwf	___flmul@a+1
  4674  01E3  084D               	movf	_fround$777,w
  4675  01E4  00A8               	movwf	___flmul@a
  4676  01E5  120A  158A  249F  120A  118A  	fcall	___flmul
  4677  01EA  1283               	bcf	3,5	;RP0=0, select bank0
  4678  01EB  1303               	bcf	3,6	;RP1=0, select bank0
  4679  01EC  0827               	movf	?___flmul+3,w
  4680  01ED  00C1               	movwf	?_fround+3
  4681  01EE  0826               	movf	?___flmul+2,w
  4682  01EF  00C0               	movwf	?_fround+2
  4683  01F0  0825               	movf	?___flmul+1,w
  4684  01F1  00BF               	movwf	?_fround+1
  4685  01F2  0824               	movf	?___flmul,w
  4686  01F3  00BE               	movwf	?_fround
  4687  01F4  2A38               	goto	l196
  4688  01F5                     l2641:	
  4689                           
  4690                           ;C:\Program Files (x86)\Microchip\xc8\v2.10\pic\sources\c90\common\doprnt.c: 425:  retur
      +                          n 0.5 * _npowers_[prec];
  4691  01F5  303F               	movlw	63
  4692  01F6  00A7               	movwf	___flmul@b+3
  4693  01F7  3000               	movlw	0
  4694  01F8  00A6               	movwf	___flmul@b+2
  4695  01F9  3000               	movlw	0
  4696  01FA  00A5               	movwf	___flmul@b+1
  4697  01FB  3000               	movlw	0
  4698  01FC  00A4               	movwf	___flmul@b
  4699  01FD  0851               	movf	fround@prec,w
  4700  01FE  00C2               	movwf	??_fround
  4701  01FF  3001               	movlw	1
  4702  0200                     u4215:	
  4703  0200  1003               	clrc
  4704  0201  0DC2               	rlf	??_fround,f
  4705  0202  3EFF               	addlw	-1
  4706  0203  1D03               	skipz
  4707  0204  2A00               	goto	u4215
  4708  0205  1003               	clrc
  4709  0206  0D42               	rlf	??_fround,w
  4710  0207  3E35               	addlw	low ((__npowers_-__stringbase)| (0+32768))
  4711  0208  0084               	movwf	4
  4712  0209  160A  118A  200A  120A  118A  	fcall	stringdir
  4713  020E  00C3               	movwf	??_fround+1
  4714  020F  160A  118A  200A  120A  118A  	fcall	stringdir
  4715  0214  00C4               	movwf	??_fround+2
  4716  0215  160A  118A  200A  120A  118A  	fcall	stringdir
  4717  021A  00C5               	movwf	??_fround+3
  4718  021B  160A  118A  200A  120A  118A  	fcall	stringdir
  4719  0220  00C6               	movwf	??_fround+4
  4720  0221  0846               	movf	??_fround+4,w
  4721  0222  00AB               	movwf	___flmul@a+3
  4722  0223  0845               	movf	??_fround+3,w
  4723  0224  00AA               	movwf	___flmul@a+2
  4724  0225  0844               	movf	??_fround+2,w
  4725  0226  00A9               	movwf	___flmul@a+1
  4726  0227  0843               	movf	??_fround+1,w
  4727  0228  00A8               	movwf	___flmul@a
  4728  0229  120A  158A  249F  120A  118A  	fcall	___flmul
  4729  022E  1283               	bcf	3,5	;RP0=0, select bank0
  4730  022F  1303               	bcf	3,6	;RP1=0, select bank0
  4731  0230  0827               	movf	?___flmul+3,w
  4732  0231  00C1               	movwf	?_fround+3
  4733  0232  0826               	movf	?___flmul+2,w
  4734  0233  00C0               	movwf	?_fround+2
  4735  0234  0825               	movf	?___flmul+1,w
  4736  0235  00BF               	movwf	?_fround+1
  4737  0236  0824               	movf	?___flmul,w
  4738  0237  00BE               	movwf	?_fround
  4739  0238                     l196:	
  4740  0238  0008               	return
  4741  0239                     __end_of_fround:	
  4742                           
  4743                           	psect	text8
  4744  1C6B                     __ptext8:	
  4745 ;; *************** function ___lwmod *****************
  4746 ;; Defined at:
  4747 ;;		line 5 in file "C:\Program Files (x86)\Microchip\xc8\v2.10\pic\sources\c90\common\lwmod.c"
  4748 ;; Parameters:    Size  Location     Type
  4749 ;;  divisor         2    0[COMMON] unsigned int 
  4750 ;;  dividend        2    2[COMMON] unsigned int 
  4751 ;; Auto vars:     Size  Location     Type
  4752 ;;  counter         1    5[COMMON] unsigned char 
  4753 ;; Return value:  Size  Location     Type
  4754 ;;                  2    0[COMMON] unsigned int 
  4755 ;; Registers used:
  4756 ;;		wreg, status,2, status,0
  4757 ;; Tracked objects:
  4758 ;;		On entry : 0/0
  4759 ;;		On exit  : 0/0
  4760 ;;		Unchanged: 0/0
  4761 ;; Data sizes:     COMMON   BANK0   BANK1   BANK3   BANK2
  4762 ;;      Params:         4       0       0       0       0
  4763 ;;      Locals:         1       0       0       0       0
  4764 ;;      Temps:          1       0       0       0       0
  4765 ;;      Totals:         6       0       0       0       0
  4766 ;;Total ram usage:        6 bytes
  4767 ;; Hardware stack levels used:    1
  4768 ;; This function calls:
  4769 ;;		Nothing
  4770 ;; This function is called by:
  4771 ;;		_fround
  4772 ;; This function uses a non-reentrant model
  4773 ;;
  4774                           
  4775                           
  4776                           ;psect for function ___lwmod
  4777  1C6B                     ___lwmod:	
  4778  1C6B                     l2245:	
  4779                           ;incstack = 0
  4780                           ; Regs used in ___lwmod: [wreg+status,2+status,0]
  4781                           
  4782  1C6B  0870               	movf	___lwmod@divisor,w
  4783  1C6C  0471               	iorwf	___lwmod@divisor+1,w
  4784  1C6D  1903               	btfsc	3,2
  4785  1C6E  2C70               	goto	u3241
  4786  1C6F  2C71               	goto	u3240
  4787  1C70                     u3241:	
  4788  1C70  2CA0               	goto	l2263
  4789  1C71                     u3240:	
  4790  1C71                     l2247:	
  4791  1C71  01F5               	clrf	___lwmod@counter
  4792  1C72  0AF5               	incf	___lwmod@counter,f
  4793  1C73  2C7F               	goto	l2253
  4794  1C74                     l2249:	
  4795  1C74  3001               	movlw	1
  4796  1C75                     u3255:	
  4797  1C75  1003               	clrc
  4798  1C76  0DF0               	rlf	___lwmod@divisor,f
  4799  1C77  0DF1               	rlf	___lwmod@divisor+1,f
  4800  1C78  3EFF               	addlw	-1
  4801  1C79  1D03               	skipz
  4802  1C7A  2C75               	goto	u3255
  4803  1C7B                     l2251:	
  4804  1C7B  3001               	movlw	1
  4805  1C7C  00F4               	movwf	??___lwmod
  4806  1C7D  0874               	movf	??___lwmod,w
  4807  1C7E  07F5               	addwf	___lwmod@counter,f
  4808  1C7F                     l2253:	
  4809  1C7F  1FF1               	btfss	___lwmod@divisor+1,7
  4810  1C80  2C82               	goto	u3261
  4811  1C81  2C83               	goto	u3260
  4812  1C82                     u3261:	
  4813  1C82  2C74               	goto	l2249
  4814  1C83                     u3260:	
  4815  1C83                     l2255:	
  4816  1C83  0871               	movf	___lwmod@divisor+1,w
  4817  1C84  0273               	subwf	___lwmod@dividend+1,w
  4818  1C85  1D03               	skipz
  4819  1C86  2C89               	goto	u3275
  4820  1C87  0870               	movf	___lwmod@divisor,w
  4821  1C88  0272               	subwf	___lwmod@dividend,w
  4822  1C89                     u3275:	
  4823  1C89  1C03               	skipc
  4824  1C8A  2C8C               	goto	u3271
  4825  1C8B  2C8D               	goto	u3270
  4826  1C8C                     u3271:	
  4827  1C8C  2C93               	goto	l2259
  4828  1C8D                     u3270:	
  4829  1C8D                     l2257:	
  4830  1C8D  0870               	movf	___lwmod@divisor,w
  4831  1C8E  02F2               	subwf	___lwmod@dividend,f
  4832  1C8F  0871               	movf	___lwmod@divisor+1,w
  4833  1C90  1C03               	skipc
  4834  1C91  03F3               	decf	___lwmod@dividend+1,f
  4835  1C92  02F3               	subwf	___lwmod@dividend+1,f
  4836  1C93                     l2259:	
  4837  1C93  3001               	movlw	1
  4838  1C94                     u3285:	
  4839  1C94  1003               	clrc
  4840  1C95  0CF1               	rrf	___lwmod@divisor+1,f
  4841  1C96  0CF0               	rrf	___lwmod@divisor,f
  4842  1C97  3EFF               	addlw	-1
  4843  1C98  1D03               	skipz
  4844  1C99  2C94               	goto	u3285
  4845  1C9A                     l2261:	
  4846  1C9A  3001               	movlw	1
  4847  1C9B  02F5               	subwf	___lwmod@counter,f
  4848  1C9C  1D03               	btfss	3,2
  4849  1C9D  2C9F               	goto	u3291
  4850  1C9E  2CA0               	goto	u3290
  4851  1C9F                     u3291:	
  4852  1C9F  2C83               	goto	l2255
  4853  1CA0                     u3290:	
  4854  1CA0                     l2263:	
  4855  1CA0  0873               	movf	___lwmod@dividend+1,w
  4856  1CA1  00F1               	movwf	?___lwmod+1
  4857  1CA2  0872               	movf	___lwmod@dividend,w
  4858  1CA3  00F0               	movwf	?___lwmod
  4859  1CA4                     l579:	
  4860  1CA4  0008               	return
  4861  1CA5                     __end_of___lwmod:	
  4862                           
  4863                           	psect	text9
  4864  1D24                     __ptext9:	
  4865 ;; *************** function ___lwdiv *****************
  4866 ;; Defined at:
  4867 ;;		line 5 in file "C:\Program Files (x86)\Microchip\xc8\v2.10\pic\sources\c90\common\lwdiv.c"
  4868 ;; Parameters:    Size  Location     Type
  4869 ;;  divisor         2    6[COMMON] unsigned int 
  4870 ;;  dividend        2    8[COMMON] unsigned int 
  4871 ;; Auto vars:     Size  Location     Type
  4872 ;;  quotient        2   11[COMMON] unsigned int 
  4873 ;;  counter         1   13[COMMON] unsigned char 
  4874 ;; Return value:  Size  Location     Type
  4875 ;;                  2    6[COMMON] unsigned int 
  4876 ;; Registers used:
  4877 ;;		wreg, status,2, status,0
  4878 ;; Tracked objects:
  4879 ;;		On entry : 0/0
  4880 ;;		On exit  : 0/0
  4881 ;;		Unchanged: 0/0
  4882 ;; Data sizes:     COMMON   BANK0   BANK1   BANK3   BANK2
  4883 ;;      Params:         4       0       0       0       0
  4884 ;;      Locals:         3       0       0       0       0
  4885 ;;      Temps:          1       0       0       0       0
  4886 ;;      Totals:         8       0       0       0       0
  4887 ;;Total ram usage:        8 bytes
  4888 ;; Hardware stack levels used:    1
  4889 ;; This function calls:
  4890 ;;		Nothing
  4891 ;; This function is called by:
  4892 ;;		_fround
  4893 ;; This function uses a non-reentrant model
  4894 ;;
  4895                           
  4896                           
  4897                           ;psect for function ___lwdiv
  4898  1D24                     ___lwdiv:	
  4899  1D24                     l2219:	
  4900                           ;incstack = 0
  4901                           ; Regs used in ___lwdiv: [wreg+status,2+status,0]
  4902                           
  4903  1D24  01FB               	clrf	___lwdiv@quotient
  4904  1D25  01FC               	clrf	___lwdiv@quotient+1
  4905  1D26                     l2221:	
  4906  1D26  0876               	movf	___lwdiv@divisor,w
  4907  1D27  0477               	iorwf	___lwdiv@divisor+1,w
  4908  1D28  1903               	btfsc	3,2
  4909  1D29  2D2B               	goto	u3171
  4910  1D2A  2D2C               	goto	u3170
  4911  1D2B                     u3171:	
  4912  1D2B  2D63               	goto	l2241
  4913  1D2C                     u3170:	
  4914  1D2C                     l2223:	
  4915  1D2C  01FD               	clrf	___lwdiv@counter
  4916  1D2D  0AFD               	incf	___lwdiv@counter,f
  4917  1D2E  2D3A               	goto	l2229
  4918  1D2F                     l2225:	
  4919  1D2F  3001               	movlw	1
  4920  1D30                     u3185:	
  4921  1D30  1003               	clrc
  4922  1D31  0DF6               	rlf	___lwdiv@divisor,f
  4923  1D32  0DF7               	rlf	___lwdiv@divisor+1,f
  4924  1D33  3EFF               	addlw	-1
  4925  1D34  1D03               	skipz
  4926  1D35  2D30               	goto	u3185
  4927  1D36                     l2227:	
  4928  1D36  3001               	movlw	1
  4929  1D37  00FA               	movwf	??___lwdiv
  4930  1D38  087A               	movf	??___lwdiv,w
  4931  1D39  07FD               	addwf	___lwdiv@counter,f
  4932  1D3A                     l2229:	
  4933  1D3A  1FF7               	btfss	___lwdiv@divisor+1,7
  4934  1D3B  2D3D               	goto	u3191
  4935  1D3C  2D3E               	goto	u3190
  4936  1D3D                     u3191:	
  4937  1D3D  2D2F               	goto	l2225
  4938  1D3E                     u3190:	
  4939  1D3E                     l2231:	
  4940  1D3E  3001               	movlw	1
  4941  1D3F                     u3205:	
  4942  1D3F  1003               	clrc
  4943  1D40  0DFB               	rlf	___lwdiv@quotient,f
  4944  1D41  0DFC               	rlf	___lwdiv@quotient+1,f
  4945  1D42  3EFF               	addlw	-1
  4946  1D43  1D03               	skipz
  4947  1D44  2D3F               	goto	u3205
  4948  1D45  0877               	movf	___lwdiv@divisor+1,w
  4949  1D46  0279               	subwf	___lwdiv@dividend+1,w
  4950  1D47  1D03               	skipz
  4951  1D48  2D4B               	goto	u3215
  4952  1D49  0876               	movf	___lwdiv@divisor,w
  4953  1D4A  0278               	subwf	___lwdiv@dividend,w
  4954  1D4B                     u3215:	
  4955  1D4B  1C03               	skipc
  4956  1D4C  2D4E               	goto	u3211
  4957  1D4D  2D4F               	goto	u3210
  4958  1D4E                     u3211:	
  4959  1D4E  2D56               	goto	l2237
  4960  1D4F                     u3210:	
  4961  1D4F                     l2233:	
  4962  1D4F  0876               	movf	___lwdiv@divisor,w
  4963  1D50  02F8               	subwf	___lwdiv@dividend,f
  4964  1D51  0877               	movf	___lwdiv@divisor+1,w
  4965  1D52  1C03               	skipc
  4966  1D53  03F9               	decf	___lwdiv@dividend+1,f
  4967  1D54  02F9               	subwf	___lwdiv@dividend+1,f
  4968  1D55                     l2235:	
  4969  1D55  147B               	bsf	___lwdiv@quotient,0
  4970  1D56                     l2237:	
  4971  1D56  3001               	movlw	1
  4972  1D57                     u3225:	
  4973  1D57  1003               	clrc
  4974  1D58  0CF7               	rrf	___lwdiv@divisor+1,f
  4975  1D59  0CF6               	rrf	___lwdiv@divisor,f
  4976  1D5A  3EFF               	addlw	-1
  4977  1D5B  1D03               	skipz
  4978  1D5C  2D57               	goto	u3225
  4979  1D5D                     l2239:	
  4980  1D5D  3001               	movlw	1
  4981  1D5E  02FD               	subwf	___lwdiv@counter,f
  4982  1D5F  1D03               	btfss	3,2
  4983  1D60  2D62               	goto	u3231
  4984  1D61  2D63               	goto	u3230
  4985  1D62                     u3231:	
  4986  1D62  2D3E               	goto	l2231
  4987  1D63                     u3230:	
  4988  1D63                     l2241:	
  4989  1D63  087C               	movf	___lwdiv@quotient+1,w
  4990  1D64  00F7               	movwf	?___lwdiv+1
  4991  1D65  087B               	movf	___lwdiv@quotient,w
  4992  1D66  00F6               	movwf	?___lwdiv
  4993  1D67                     l569:	
  4994  1D67  0008               	return
  4995  1D68                     __end_of___lwdiv:	
  4996                           
  4997                           	psect	text10
  4998  0C9F                     __ptext10:	
  4999 ;; *************** function ___flmul *****************
  5000 ;; Defined at:
  5001 ;;		line 8 in file "C:\Program Files (x86)\Microchip\xc8\v2.10\pic\sources\c90\common\sprcmul.c"
  5002 ;; Parameters:    Size  Location     Type
  5003 ;;  b               4    4[BANK0 ] unsigned int 
  5004 ;;  a               4    8[BANK0 ] unsigned int 
  5005 ;; Auto vars:     Size  Location     Type
  5006 ;;  prod            4   24[BANK0 ] struct .
  5007 ;;  grs             4   18[BANK0 ] unsigned long 
  5008 ;;  temp            2   28[BANK0 ] struct .
  5009 ;;  bexp            1   23[BANK0 ] unsigned char 
  5010 ;;  aexp            1   22[BANK0 ] unsigned char 
  5011 ;;  sign            1   17[BANK0 ] unsigned char 
  5012 ;; Return value:  Size  Location     Type
  5013 ;;                  4    4[BANK0 ] unsigned char 
  5014 ;; Registers used:
  5015 ;;		wreg, status,2, status,0, btemp+1, pclath, cstack
  5016 ;; Tracked objects:
  5017 ;;		On entry : 0/0
  5018 ;;		On exit  : 0/0
  5019 ;;		Unchanged: 0/0
  5020 ;; Data sizes:     COMMON   BANK0   BANK1   BANK3   BANK2
  5021 ;;      Params:         0       8       0       0       0
  5022 ;;      Locals:         0      13       0       0       0
  5023 ;;      Temps:          0       5       0       0       0
  5024 ;;      Totals:         0      26       0       0       0
  5025 ;;Total ram usage:       26 bytes
  5026 ;; Hardware stack levels used:    1
  5027 ;; Hardware stack levels required when called:    1
  5028 ;; This function calls:
  5029 ;;		__Umul8_16
  5030 ;; This function is called by:
  5031 ;;		_ADC_Read
  5032 ;;		_fround
  5033 ;;		_scale
  5034 ;;		_sprintf
  5035 ;; This function uses a non-reentrant model
  5036 ;;
  5037                           
  5038                           
  5039                           ;psect for function ___flmul
  5040  0C9F                     ___flmul:	
  5041  0C9F                     l2461:	
  5042                           ;incstack = 0
  5043                           ; Regs used in ___flmul: [wreg+status,2+status,0+btemp+1+pclath+cstack]
  5044                           
  5045  0C9F  1283               	bcf	3,5	;RP0=0, select bank0
  5046  0CA0  1303               	bcf	3,6	;RP1=0, select bank0
  5047  0CA1  0827               	movf	___flmul@b+3,w
  5048  0CA2  3980               	andlw	128
  5049  0CA3  00AC               	movwf	??___flmul
  5050  0CA4  082C               	movf	??___flmul,w
  5051  0CA5  00B1               	movwf	___flmul@sign
  5052  0CA6                     l2463:	
  5053  0CA6  0827               	movf	___flmul@b+3,w
  5054  0CA7  00AC               	movwf	??___flmul
  5055  0CA8  072C               	addwf	??___flmul,w
  5056  0CA9  00AD               	movwf	??___flmul+1
  5057  0CAA  082D               	movf	??___flmul+1,w
  5058  0CAB  00B7               	movwf	___flmul@bexp
  5059  0CAC                     l2465:	
  5060  0CAC  1FA6               	btfss	___flmul@b+2,7
  5061  0CAD  2CAF               	goto	u3761
  5062  0CAE  2CB0               	goto	u3760
  5063  0CAF                     u3761:	
  5064  0CAF  2CB1               	goto	l2469
  5065  0CB0                     u3760:	
  5066  0CB0                     l2467:	
  5067  0CB0  1437               	bsf	___flmul@bexp,0
  5068  0CB1                     l2469:	
  5069  0CB1  0837               	movf	___flmul@bexp,w
  5070  0CB2  1903               	btfsc	3,2
  5071  0CB3  2CB5               	goto	u3771
  5072  0CB4  2CB6               	goto	u3770
  5073  0CB5                     u3771:	
  5074  0CB5  2CC5               	goto	l2477
  5075  0CB6                     u3770:	
  5076  0CB6                     l2471:	
  5077  0CB6  0A37               	incf	___flmul@bexp,w
  5078  0CB7  1D03               	btfss	3,2
  5079  0CB8  2CBA               	goto	u3781
  5080  0CB9  2CBB               	goto	u3780
  5081  0CBA                     u3781:	
  5082  0CBA  2CC3               	goto	l2475
  5083  0CBB                     u3780:	
  5084  0CBB                     l2473:	
  5085  0CBB  3000               	movlw	0
  5086  0CBC  00A7               	movwf	___flmul@b+3
  5087  0CBD  3000               	movlw	0
  5088  0CBE  00A6               	movwf	___flmul@b+2
  5089  0CBF  3000               	movlw	0
  5090  0CC0  00A5               	movwf	___flmul@b+1
  5091  0CC1  3000               	movlw	0
  5092  0CC2  00A4               	movwf	___flmul@b
  5093  0CC3                     l2475:	
  5094  0CC3  17A6               	bsf	___flmul@b+2,7
  5095  0CC4  2CCD               	goto	l2479
  5096  0CC5                     l2477:	
  5097  0CC5  3000               	movlw	0
  5098  0CC6  00A7               	movwf	___flmul@b+3
  5099  0CC7  3000               	movlw	0
  5100  0CC8  00A6               	movwf	___flmul@b+2
  5101  0CC9  3000               	movlw	0
  5102  0CCA  00A5               	movwf	___flmul@b+1
  5103  0CCB  3000               	movlw	0
  5104  0CCC  00A4               	movwf	___flmul@b
  5105  0CCD                     l2479:	
  5106  0CCD  082B               	movf	___flmul@a+3,w
  5107  0CCE  3980               	andlw	128
  5108  0CCF  00AC               	movwf	??___flmul
  5109  0CD0  082C               	movf	??___flmul,w
  5110  0CD1  06B1               	xorwf	___flmul@sign,f
  5111  0CD2                     l2481:	
  5112  0CD2  082B               	movf	___flmul@a+3,w
  5113  0CD3  00AC               	movwf	??___flmul
  5114  0CD4  072C               	addwf	??___flmul,w
  5115  0CD5  00AD               	movwf	??___flmul+1
  5116  0CD6  082D               	movf	??___flmul+1,w
  5117  0CD7  00B6               	movwf	___flmul@aexp
  5118  0CD8                     l2483:	
  5119  0CD8  1FAA               	btfss	___flmul@a+2,7
  5120  0CD9  2CDB               	goto	u3791
  5121  0CDA  2CDC               	goto	u3790
  5122  0CDB                     u3791:	
  5123  0CDB  2CDD               	goto	l2487
  5124  0CDC                     u3790:	
  5125  0CDC                     l2485:	
  5126  0CDC  1436               	bsf	___flmul@aexp,0
  5127  0CDD                     l2487:	
  5128  0CDD  0836               	movf	___flmul@aexp,w
  5129  0CDE  1903               	btfsc	3,2
  5130  0CDF  2CE1               	goto	u3801
  5131  0CE0  2CE2               	goto	u3800
  5132  0CE1                     u3801:	
  5133  0CE1  2CF1               	goto	l2495
  5134  0CE2                     u3800:	
  5135  0CE2                     l2489:	
  5136  0CE2  0A36               	incf	___flmul@aexp,w
  5137  0CE3  1D03               	btfss	3,2
  5138  0CE4  2CE6               	goto	u3811
  5139  0CE5  2CE7               	goto	u3810
  5140  0CE6                     u3811:	
  5141  0CE6  2CEF               	goto	l2493
  5142  0CE7                     u3810:	
  5143  0CE7                     l2491:	
  5144  0CE7  3000               	movlw	0
  5145  0CE8  00AB               	movwf	___flmul@a+3
  5146  0CE9  3000               	movlw	0
  5147  0CEA  00AA               	movwf	___flmul@a+2
  5148  0CEB  3000               	movlw	0
  5149  0CEC  00A9               	movwf	___flmul@a+1
  5150  0CED  3000               	movlw	0
  5151  0CEE  00A8               	movwf	___flmul@a
  5152  0CEF                     l2493:	
  5153  0CEF  17AA               	bsf	___flmul@a+2,7
  5154  0CF0  2CF9               	goto	l2497
  5155  0CF1                     l2495:	
  5156  0CF1  3000               	movlw	0
  5157  0CF2  00AB               	movwf	___flmul@a+3
  5158  0CF3  3000               	movlw	0
  5159  0CF4  00AA               	movwf	___flmul@a+2
  5160  0CF5  3000               	movlw	0
  5161  0CF6  00A9               	movwf	___flmul@a+1
  5162  0CF7  3000               	movlw	0
  5163  0CF8  00A8               	movwf	___flmul@a
  5164  0CF9                     l2497:	
  5165  0CF9  0836               	movf	___flmul@aexp,w
  5166  0CFA  1903               	btfsc	3,2
  5167  0CFB  2CFD               	goto	u3821
  5168  0CFC  2CFE               	goto	u3820
  5169  0CFD                     u3821:	
  5170  0CFD  2D03               	goto	l2501
  5171  0CFE                     u3820:	
  5172  0CFE                     l2499:	
  5173  0CFE  0837               	movf	___flmul@bexp,w
  5174  0CFF  1D03               	btfss	3,2
  5175  0D00  2D02               	goto	u3831
  5176  0D01  2D03               	goto	u3830
  5177  0D02                     u3831:	
  5178  0D02  2D0C               	goto	l2505
  5179  0D03                     u3830:	
  5180  0D03                     l2501:	
  5181  0D03  3000               	movlw	0
  5182  0D04  00A7               	movwf	?___flmul+3
  5183  0D05  3000               	movlw	0
  5184  0D06  00A6               	movwf	?___flmul+2
  5185  0D07  3000               	movlw	0
  5186  0D08  00A5               	movwf	?___flmul+1
  5187  0D09  3000               	movlw	0
  5188  0D0A  00A4               	movwf	?___flmul
  5189  0D0B  2FFF               	goto	l686
  5190  0D0C                     l2505:	
  5191  0D0C  0824               	movf	___flmul@b,w
  5192  0D0D  00AC               	movwf	??___flmul
  5193  0D0E  082C               	movf	??___flmul,w
  5194  0D0F  00F0               	movwf	__Umul8_16@multiplicand
  5195  0D10  082A               	movf	___flmul@a+2,w
  5196  0D11  160A  158A  2444  120A  158A  	fcall	__Umul8_16
  5197  0D16  0871               	movf	?__Umul8_16+1,w
  5198  0D17  1283               	bcf	3,5	;RP0=0, select bank0
  5199  0D18  1303               	bcf	3,6	;RP1=0, select bank0
  5200  0D19  00BD               	movwf	___flmul@temp+1
  5201  0D1A  0870               	movf	?__Umul8_16,w
  5202  0D1B  00BC               	movwf	___flmul@temp
  5203  0D1C                     l2507:	
  5204  0D1C  083C               	movf	___flmul@temp,w
  5205  0D1D  00AC               	movwf	??___flmul
  5206  0D1E  01AD               	clrf	??___flmul+1
  5207  0D1F  01AE               	clrf	??___flmul+2
  5208  0D20  01AF               	clrf	??___flmul+3
  5209  0D21  082F               	movf	??___flmul+3,w
  5210  0D22  00B5               	movwf	___flmul@grs+3
  5211  0D23  082E               	movf	??___flmul+2,w
  5212  0D24  00B4               	movwf	___flmul@grs+2
  5213  0D25  082D               	movf	??___flmul+1,w
  5214  0D26  00B3               	movwf	___flmul@grs+1
  5215  0D27  082C               	movf	??___flmul,w
  5216  0D28  00B2               	movwf	___flmul@grs
  5217  0D29                     l2509:	
  5218  0D29  083D               	movf	___flmul@temp+1,w
  5219  0D2A  00AC               	movwf	??___flmul
  5220  0D2B  01AD               	clrf	??___flmul+1
  5221  0D2C  01AE               	clrf	??___flmul+2
  5222  0D2D  01AF               	clrf	??___flmul+3
  5223  0D2E  082F               	movf	??___flmul+3,w
  5224  0D2F  00BB               	movwf	___flmul@prod+3
  5225  0D30  082E               	movf	??___flmul+2,w
  5226  0D31  00BA               	movwf	___flmul@prod+2
  5227  0D32  082D               	movf	??___flmul+1,w
  5228  0D33  00B9               	movwf	___flmul@prod+1
  5229  0D34  082C               	movf	??___flmul,w
  5230  0D35  00B8               	movwf	___flmul@prod
  5231  0D36  0825               	movf	___flmul@b+1,w
  5232  0D37  00AC               	movwf	??___flmul
  5233  0D38  082C               	movf	??___flmul,w
  5234  0D39  00F0               	movwf	__Umul8_16@multiplicand
  5235  0D3A  0829               	movf	___flmul@a+1,w
  5236  0D3B  160A  158A  2444  120A  158A  	fcall	__Umul8_16
  5237  0D40  0871               	movf	?__Umul8_16+1,w
  5238  0D41  1283               	bcf	3,5	;RP0=0, select bank0
  5239  0D42  1303               	bcf	3,6	;RP1=0, select bank0
  5240  0D43  00BD               	movwf	___flmul@temp+1
  5241  0D44  0870               	movf	?__Umul8_16,w
  5242  0D45  00BC               	movwf	___flmul@temp
  5243  0D46                     l2511:	
  5244  0D46  083C               	movf	___flmul@temp,w
  5245  0D47  00AC               	movwf	??___flmul
  5246  0D48  01AD               	clrf	??___flmul+1
  5247  0D49  01AE               	clrf	??___flmul+2
  5248  0D4A  01AF               	clrf	??___flmul+3
  5249  0D4B  082C               	movf	??___flmul,w
  5250  0D4C  07B2               	addwf	___flmul@grs,f
  5251  0D4D  082D               	movf	??___flmul+1,w
  5252  0D4E  1103               	clrz
  5253  0D4F  1803               	skipnc
  5254  0D50  3E01               	addlw	1
  5255  0D51  1903               	skipnz
  5256  0D52  2D54               	goto	u3841
  5257  0D53  07B3               	addwf	___flmul@grs+1,f
  5258  0D54                     u3841:	
  5259  0D54  082E               	movf	??___flmul+2,w
  5260  0D55  1103               	clrz
  5261  0D56  1803               	skipnc
  5262  0D57  3E01               	addlw	1
  5263  0D58  1903               	skipnz
  5264  0D59  2D5B               	goto	u3842
  5265  0D5A  07B4               	addwf	___flmul@grs+2,f
  5266  0D5B                     u3842:	
  5267  0D5B  082F               	movf	??___flmul+3,w
  5268  0D5C  1103               	clrz
  5269  0D5D  1803               	skipnc
  5270  0D5E  3E01               	addlw	1
  5271  0D5F  1903               	skipnz
  5272  0D60  2D62               	goto	u3843
  5273  0D61  07B5               	addwf	___flmul@grs+3,f
  5274  0D62                     u3843:	
  5275  0D62                     l2513:	
  5276  0D62  083D               	movf	___flmul@temp+1,w
  5277  0D63  00AC               	movwf	??___flmul
  5278  0D64  01AD               	clrf	??___flmul+1
  5279  0D65  01AE               	clrf	??___flmul+2
  5280  0D66  01AF               	clrf	??___flmul+3
  5281  0D67  082C               	movf	??___flmul,w
  5282  0D68  07B8               	addwf	___flmul@prod,f
  5283  0D69  082D               	movf	??___flmul+1,w
  5284  0D6A  1103               	clrz
  5285  0D6B  1803               	skipnc
  5286  0D6C  3E01               	addlw	1
  5287  0D6D  1903               	skipnz
  5288  0D6E  2D70               	goto	u3851
  5289  0D6F  07B9               	addwf	___flmul@prod+1,f
  5290  0D70                     u3851:	
  5291  0D70  082E               	movf	??___flmul+2,w
  5292  0D71  1103               	clrz
  5293  0D72  1803               	skipnc
  5294  0D73  3E01               	addlw	1
  5295  0D74  1903               	skipnz
  5296  0D75  2D77               	goto	u3852
  5297  0D76  07BA               	addwf	___flmul@prod+2,f
  5298  0D77                     u3852:	
  5299  0D77  082F               	movf	??___flmul+3,w
  5300  0D78  1103               	clrz
  5301  0D79  1803               	skipnc
  5302  0D7A  3E01               	addlw	1
  5303  0D7B  1903               	skipnz
  5304  0D7C  2D7E               	goto	u3853
  5305  0D7D  07BB               	addwf	___flmul@prod+3,f
  5306  0D7E                     u3853:	
  5307  0D7E  0826               	movf	___flmul@b+2,w
  5308  0D7F  00AC               	movwf	??___flmul
  5309  0D80  082C               	movf	??___flmul,w
  5310  0D81  00F0               	movwf	__Umul8_16@multiplicand
  5311  0D82  0828               	movf	___flmul@a,w
  5312  0D83  160A  158A  2444  120A  158A  	fcall	__Umul8_16
  5313  0D88  0871               	movf	?__Umul8_16+1,w
  5314  0D89  1283               	bcf	3,5	;RP0=0, select bank0
  5315  0D8A  1303               	bcf	3,6	;RP1=0, select bank0
  5316  0D8B  00BD               	movwf	___flmul@temp+1
  5317  0D8C  0870               	movf	?__Umul8_16,w
  5318  0D8D  00BC               	movwf	___flmul@temp
  5319  0D8E                     l2515:	
  5320  0D8E  083C               	movf	___flmul@temp,w
  5321  0D8F  00AC               	movwf	??___flmul
  5322  0D90  01AD               	clrf	??___flmul+1
  5323  0D91  01AE               	clrf	??___flmul+2
  5324  0D92  01AF               	clrf	??___flmul+3
  5325  0D93  082C               	movf	??___flmul,w
  5326  0D94  07B2               	addwf	___flmul@grs,f
  5327  0D95  082D               	movf	??___flmul+1,w
  5328  0D96  1103               	clrz
  5329  0D97  1803               	skipnc
  5330  0D98  3E01               	addlw	1
  5331  0D99  1903               	skipnz
  5332  0D9A  2D9C               	goto	u3861
  5333  0D9B  07B3               	addwf	___flmul@grs+1,f
  5334  0D9C                     u3861:	
  5335  0D9C  082E               	movf	??___flmul+2,w
  5336  0D9D  1103               	clrz
  5337  0D9E  1803               	skipnc
  5338  0D9F  3E01               	addlw	1
  5339  0DA0  1903               	skipnz
  5340  0DA1  2DA3               	goto	u3862
  5341  0DA2  07B4               	addwf	___flmul@grs+2,f
  5342  0DA3                     u3862:	
  5343  0DA3  082F               	movf	??___flmul+3,w
  5344  0DA4  1103               	clrz
  5345  0DA5  1803               	skipnc
  5346  0DA6  3E01               	addlw	1
  5347  0DA7  1903               	skipnz
  5348  0DA8  2DAA               	goto	u3863
  5349  0DA9  07B5               	addwf	___flmul@grs+3,f
  5350  0DAA                     u3863:	
  5351  0DAA                     l2517:	
  5352  0DAA  083D               	movf	___flmul@temp+1,w
  5353  0DAB  00AC               	movwf	??___flmul
  5354  0DAC  01AD               	clrf	??___flmul+1
  5355  0DAD  01AE               	clrf	??___flmul+2
  5356  0DAE  01AF               	clrf	??___flmul+3
  5357  0DAF  082C               	movf	??___flmul,w
  5358  0DB0  07B8               	addwf	___flmul@prod,f
  5359  0DB1  082D               	movf	??___flmul+1,w
  5360  0DB2  1103               	clrz
  5361  0DB3  1803               	skipnc
  5362  0DB4  3E01               	addlw	1
  5363  0DB5  1903               	skipnz
  5364  0DB6  2DB8               	goto	u3871
  5365  0DB7  07B9               	addwf	___flmul@prod+1,f
  5366  0DB8                     u3871:	
  5367  0DB8  082E               	movf	??___flmul+2,w
  5368  0DB9  1103               	clrz
  5369  0DBA  1803               	skipnc
  5370  0DBB  3E01               	addlw	1
  5371  0DBC  1903               	skipnz
  5372  0DBD  2DBF               	goto	u3872
  5373  0DBE  07BA               	addwf	___flmul@prod+2,f
  5374  0DBF                     u3872:	
  5375  0DBF  082F               	movf	??___flmul+3,w
  5376  0DC0  1103               	clrz
  5377  0DC1  1803               	skipnc
  5378  0DC2  3E01               	addlw	1
  5379  0DC3  1903               	skipnz
  5380  0DC4  2DC6               	goto	u3873
  5381  0DC5  07BB               	addwf	___flmul@prod+3,f
  5382  0DC6                     u3873:	
  5383  0DC6                     l2519:	
  5384  0DC6  3008               	movlw	8
  5385  0DC7  00AC               	movwf	??___flmul
  5386  0DC8                     u3885:	
  5387  0DC8  1003               	clrc
  5388  0DC9  0DB2               	rlf	___flmul@grs,f
  5389  0DCA  0DB3               	rlf	___flmul@grs+1,f
  5390  0DCB  0DB4               	rlf	___flmul@grs+2,f
  5391  0DCC  0DB5               	rlf	___flmul@grs+3,f
  5392  0DCD  0BAC               	decfsz	??___flmul,f
  5393  0DCE  2DC8               	goto	u3885
  5394  0DCF                     l2521:	
  5395  0DCF  0825               	movf	___flmul@b+1,w
  5396  0DD0  00AC               	movwf	??___flmul
  5397  0DD1  082C               	movf	??___flmul,w
  5398  0DD2  00F0               	movwf	__Umul8_16@multiplicand
  5399  0DD3  0828               	movf	___flmul@a,w
  5400  0DD4  160A  158A  2444  120A  158A  	fcall	__Umul8_16
  5401  0DD9  0871               	movf	?__Umul8_16+1,w
  5402  0DDA  1283               	bcf	3,5	;RP0=0, select bank0
  5403  0DDB  1303               	bcf	3,6	;RP1=0, select bank0
  5404  0DDC  00BD               	movwf	___flmul@temp+1
  5405  0DDD  0870               	movf	?__Umul8_16,w
  5406  0DDE  00BC               	movwf	___flmul@temp
  5407  0DDF                     l2523:	
  5408  0DDF  083C               	movf	___flmul@temp,w
  5409  0DE0  00AC               	movwf	??___flmul
  5410  0DE1  083D               	movf	___flmul@temp+1,w
  5411  0DE2  00AD               	movwf	??___flmul+1
  5412  0DE3  01AE               	clrf	??___flmul+2
  5413  0DE4  01AF               	clrf	??___flmul+3
  5414  0DE5  082C               	movf	??___flmul,w
  5415  0DE6  07B2               	addwf	___flmul@grs,f
  5416  0DE7  082D               	movf	??___flmul+1,w
  5417  0DE8  1103               	clrz
  5418  0DE9  1803               	skipnc
  5419  0DEA  3E01               	addlw	1
  5420  0DEB  1903               	skipnz
  5421  0DEC  2DEE               	goto	u3891
  5422  0DED  07B3               	addwf	___flmul@grs+1,f
  5423  0DEE                     u3891:	
  5424  0DEE  082E               	movf	??___flmul+2,w
  5425  0DEF  1103               	clrz
  5426  0DF0  1803               	skipnc
  5427  0DF1  3E01               	addlw	1
  5428  0DF2  1903               	skipnz
  5429  0DF3  2DF5               	goto	u3892
  5430  0DF4  07B4               	addwf	___flmul@grs+2,f
  5431  0DF5                     u3892:	
  5432  0DF5  082F               	movf	??___flmul+3,w
  5433  0DF6  1103               	clrz
  5434  0DF7  1803               	skipnc
  5435  0DF8  3E01               	addlw	1
  5436  0DF9  1903               	skipnz
  5437  0DFA  2DFC               	goto	u3893
  5438  0DFB  07B5               	addwf	___flmul@grs+3,f
  5439  0DFC                     u3893:	
  5440  0DFC                     l2525:	
  5441  0DFC  0824               	movf	___flmul@b,w
  5442  0DFD  00AC               	movwf	??___flmul
  5443  0DFE  082C               	movf	??___flmul,w
  5444  0DFF  00F0               	movwf	__Umul8_16@multiplicand
  5445  0E00  0829               	movf	___flmul@a+1,w
  5446  0E01  160A  158A  2444  120A  158A  	fcall	__Umul8_16
  5447  0E06  0871               	movf	?__Umul8_16+1,w
  5448  0E07  1283               	bcf	3,5	;RP0=0, select bank0
  5449  0E08  1303               	bcf	3,6	;RP1=0, select bank0
  5450  0E09  00BD               	movwf	___flmul@temp+1
  5451  0E0A  0870               	movf	?__Umul8_16,w
  5452  0E0B  00BC               	movwf	___flmul@temp
  5453  0E0C                     l2527:	
  5454  0E0C  083C               	movf	___flmul@temp,w
  5455  0E0D  00AC               	movwf	??___flmul
  5456  0E0E  083D               	movf	___flmul@temp+1,w
  5457  0E0F  00AD               	movwf	??___flmul+1
  5458  0E10  01AE               	clrf	??___flmul+2
  5459  0E11  01AF               	clrf	??___flmul+3
  5460  0E12  082C               	movf	??___flmul,w
  5461  0E13  07B2               	addwf	___flmul@grs,f
  5462  0E14  082D               	movf	??___flmul+1,w
  5463  0E15  1103               	clrz
  5464  0E16  1803               	skipnc
  5465  0E17  3E01               	addlw	1
  5466  0E18  1903               	skipnz
  5467  0E19  2E1B               	goto	u3901
  5468  0E1A  07B3               	addwf	___flmul@grs+1,f
  5469  0E1B                     u3901:	
  5470  0E1B  082E               	movf	??___flmul+2,w
  5471  0E1C  1103               	clrz
  5472  0E1D  1803               	skipnc
  5473  0E1E  3E01               	addlw	1
  5474  0E1F  1903               	skipnz
  5475  0E20  2E22               	goto	u3902
  5476  0E21  07B4               	addwf	___flmul@grs+2,f
  5477  0E22                     u3902:	
  5478  0E22  082F               	movf	??___flmul+3,w
  5479  0E23  1103               	clrz
  5480  0E24  1803               	skipnc
  5481  0E25  3E01               	addlw	1
  5482  0E26  1903               	skipnz
  5483  0E27  2E29               	goto	u3903
  5484  0E28  07B5               	addwf	___flmul@grs+3,f
  5485  0E29                     u3903:	
  5486  0E29                     l2529:	
  5487  0E29  3008               	movlw	8
  5488  0E2A  00AC               	movwf	??___flmul
  5489  0E2B                     u3915:	
  5490  0E2B  1003               	clrc
  5491  0E2C  0DB2               	rlf	___flmul@grs,f
  5492  0E2D  0DB3               	rlf	___flmul@grs+1,f
  5493  0E2E  0DB4               	rlf	___flmul@grs+2,f
  5494  0E2F  0DB5               	rlf	___flmul@grs+3,f
  5495  0E30  0BAC               	decfsz	??___flmul,f
  5496  0E31  2E2B               	goto	u3915
  5497  0E32  0824               	movf	___flmul@b,w
  5498  0E33  00AC               	movwf	??___flmul
  5499  0E34  082C               	movf	??___flmul,w
  5500  0E35  00F0               	movwf	__Umul8_16@multiplicand
  5501  0E36  0828               	movf	___flmul@a,w
  5502  0E37  160A  158A  2444  120A  158A  	fcall	__Umul8_16
  5503  0E3C  0871               	movf	?__Umul8_16+1,w
  5504  0E3D  1283               	bcf	3,5	;RP0=0, select bank0
  5505  0E3E  1303               	bcf	3,6	;RP1=0, select bank0
  5506  0E3F  00BD               	movwf	___flmul@temp+1
  5507  0E40  0870               	movf	?__Umul8_16,w
  5508  0E41  00BC               	movwf	___flmul@temp
  5509  0E42                     l2531:	
  5510  0E42  083C               	movf	___flmul@temp,w
  5511  0E43  00AC               	movwf	??___flmul
  5512  0E44  083D               	movf	___flmul@temp+1,w
  5513  0E45  00AD               	movwf	??___flmul+1
  5514  0E46  01AE               	clrf	??___flmul+2
  5515  0E47  01AF               	clrf	??___flmul+3
  5516  0E48  082C               	movf	??___flmul,w
  5517  0E49  07B2               	addwf	___flmul@grs,f
  5518  0E4A  082D               	movf	??___flmul+1,w
  5519  0E4B  1103               	clrz
  5520  0E4C  1803               	skipnc
  5521  0E4D  3E01               	addlw	1
  5522  0E4E  1903               	skipnz
  5523  0E4F  2E51               	goto	u3921
  5524  0E50  07B3               	addwf	___flmul@grs+1,f
  5525  0E51                     u3921:	
  5526  0E51  082E               	movf	??___flmul+2,w
  5527  0E52  1103               	clrz
  5528  0E53  1803               	skipnc
  5529  0E54  3E01               	addlw	1
  5530  0E55  1903               	skipnz
  5531  0E56  2E58               	goto	u3922
  5532  0E57  07B4               	addwf	___flmul@grs+2,f
  5533  0E58                     u3922:	
  5534  0E58  082F               	movf	??___flmul+3,w
  5535  0E59  1103               	clrz
  5536  0E5A  1803               	skipnc
  5537  0E5B  3E01               	addlw	1
  5538  0E5C  1903               	skipnz
  5539  0E5D  2E5F               	goto	u3923
  5540  0E5E  07B5               	addwf	___flmul@grs+3,f
  5541  0E5F                     u3923:	
  5542  0E5F                     l2533:	
  5543  0E5F  0825               	movf	___flmul@b+1,w
  5544  0E60  00AC               	movwf	??___flmul
  5545  0E61  082C               	movf	??___flmul,w
  5546  0E62  00F0               	movwf	__Umul8_16@multiplicand
  5547  0E63  082A               	movf	___flmul@a+2,w
  5548  0E64  160A  158A  2444  120A  158A  	fcall	__Umul8_16
  5549  0E69  0871               	movf	?__Umul8_16+1,w
  5550  0E6A  1283               	bcf	3,5	;RP0=0, select bank0
  5551  0E6B  1303               	bcf	3,6	;RP1=0, select bank0
  5552  0E6C  00BD               	movwf	___flmul@temp+1
  5553  0E6D  0870               	movf	?__Umul8_16,w
  5554  0E6E  00BC               	movwf	___flmul@temp
  5555  0E6F  083C               	movf	___flmul@temp,w
  5556  0E70  00AC               	movwf	??___flmul
  5557  0E71  083D               	movf	___flmul@temp+1,w
  5558  0E72  00AD               	movwf	??___flmul+1
  5559  0E73  01AE               	clrf	??___flmul+2
  5560  0E74  01AF               	clrf	??___flmul+3
  5561  0E75  082C               	movf	??___flmul,w
  5562  0E76  07B8               	addwf	___flmul@prod,f
  5563  0E77  082D               	movf	??___flmul+1,w
  5564  0E78  1103               	clrz
  5565  0E79  1803               	skipnc
  5566  0E7A  3E01               	addlw	1
  5567  0E7B  1903               	skipnz
  5568  0E7C  2E7E               	goto	u3931
  5569  0E7D  07B9               	addwf	___flmul@prod+1,f
  5570  0E7E                     u3931:	
  5571  0E7E  082E               	movf	??___flmul+2,w
  5572  0E7F  1103               	clrz
  5573  0E80  1803               	skipnc
  5574  0E81  3E01               	addlw	1
  5575  0E82  1903               	skipnz
  5576  0E83  2E85               	goto	u3932
  5577  0E84  07BA               	addwf	___flmul@prod+2,f
  5578  0E85                     u3932:	
  5579  0E85  082F               	movf	??___flmul+3,w
  5580  0E86  1103               	clrz
  5581  0E87  1803               	skipnc
  5582  0E88  3E01               	addlw	1
  5583  0E89  1903               	skipnz
  5584  0E8A  2E8C               	goto	u3933
  5585  0E8B  07BB               	addwf	___flmul@prod+3,f
  5586  0E8C                     u3933:	
  5587  0E8C                     l2535:	
  5588  0E8C  0826               	movf	___flmul@b+2,w
  5589  0E8D  00AC               	movwf	??___flmul
  5590  0E8E  082C               	movf	??___flmul,w
  5591  0E8F  00F0               	movwf	__Umul8_16@multiplicand
  5592  0E90  0829               	movf	___flmul@a+1,w
  5593  0E91  160A  158A  2444  120A  158A  	fcall	__Umul8_16
  5594  0E96  0871               	movf	?__Umul8_16+1,w
  5595  0E97  1283               	bcf	3,5	;RP0=0, select bank0
  5596  0E98  1303               	bcf	3,6	;RP1=0, select bank0
  5597  0E99  00BD               	movwf	___flmul@temp+1
  5598  0E9A  0870               	movf	?__Umul8_16,w
  5599  0E9B  00BC               	movwf	___flmul@temp
  5600  0E9C                     l2537:	
  5601  0E9C  083C               	movf	___flmul@temp,w
  5602  0E9D  00AC               	movwf	??___flmul
  5603  0E9E  083D               	movf	___flmul@temp+1,w
  5604  0E9F  00AD               	movwf	??___flmul+1
  5605  0EA0  01AE               	clrf	??___flmul+2
  5606  0EA1  01AF               	clrf	??___flmul+3
  5607  0EA2  082C               	movf	??___flmul,w
  5608  0EA3  07B8               	addwf	___flmul@prod,f
  5609  0EA4  082D               	movf	??___flmul+1,w
  5610  0EA5  1103               	clrz
  5611  0EA6  1803               	skipnc
  5612  0EA7  3E01               	addlw	1
  5613  0EA8  1903               	skipnz
  5614  0EA9  2EAB               	goto	u3941
  5615  0EAA  07B9               	addwf	___flmul@prod+1,f
  5616  0EAB                     u3941:	
  5617  0EAB  082E               	movf	??___flmul+2,w
  5618  0EAC  1103               	clrz
  5619  0EAD  1803               	skipnc
  5620  0EAE  3E01               	addlw	1
  5621  0EAF  1903               	skipnz
  5622  0EB0  2EB2               	goto	u3942
  5623  0EB1  07BA               	addwf	___flmul@prod+2,f
  5624  0EB2                     u3942:	
  5625  0EB2  082F               	movf	??___flmul+3,w
  5626  0EB3  1103               	clrz
  5627  0EB4  1803               	skipnc
  5628  0EB5  3E01               	addlw	1
  5629  0EB6  1903               	skipnz
  5630  0EB7  2EB9               	goto	u3943
  5631  0EB8  07BB               	addwf	___flmul@prod+3,f
  5632  0EB9                     u3943:	
  5633  0EB9  0826               	movf	___flmul@b+2,w
  5634  0EBA  00AC               	movwf	??___flmul
  5635  0EBB  082C               	movf	??___flmul,w
  5636  0EBC  00F0               	movwf	__Umul8_16@multiplicand
  5637  0EBD  082A               	movf	___flmul@a+2,w
  5638  0EBE  160A  158A  2444  120A  158A  	fcall	__Umul8_16
  5639  0EC3  0871               	movf	?__Umul8_16+1,w
  5640  0EC4  1283               	bcf	3,5	;RP0=0, select bank0
  5641  0EC5  1303               	bcf	3,6	;RP1=0, select bank0
  5642  0EC6  00BD               	movwf	___flmul@temp+1
  5643  0EC7  0870               	movf	?__Umul8_16,w
  5644  0EC8  00BC               	movwf	___flmul@temp
  5645  0EC9                     l2539:	
  5646  0EC9  083C               	movf	___flmul@temp,w
  5647  0ECA  00AC               	movwf	??___flmul
  5648  0ECB  083D               	movf	___flmul@temp+1,w
  5649  0ECC  00AD               	movwf	??___flmul+1
  5650  0ECD  01AE               	clrf	??___flmul+2
  5651  0ECE  01AF               	clrf	??___flmul+3
  5652  0ECF  3008               	movlw	8
  5653  0ED0                     u3955:	
  5654  0ED0  1003               	clrc
  5655  0ED1  0DAC               	rlf	??___flmul,f
  5656  0ED2  0DAD               	rlf	??___flmul+1,f
  5657  0ED3  0DAE               	rlf	??___flmul+2,f
  5658  0ED4  0DAF               	rlf	??___flmul+3,f
  5659  0ED5                     u3950:	
  5660  0ED5  3EFF               	addlw	-1
  5661  0ED6  1D03               	skipz
  5662  0ED7  2ED0               	goto	u3955
  5663  0ED8  082C               	movf	??___flmul,w
  5664  0ED9  07B8               	addwf	___flmul@prod,f
  5665  0EDA  082D               	movf	??___flmul+1,w
  5666  0EDB  1103               	clrz
  5667  0EDC  1803               	skipnc
  5668  0EDD  3E01               	addlw	1
  5669  0EDE  1903               	skipnz
  5670  0EDF  2EE1               	goto	u3961
  5671  0EE0  07B9               	addwf	___flmul@prod+1,f
  5672  0EE1                     u3961:	
  5673  0EE1  082E               	movf	??___flmul+2,w
  5674  0EE2  1103               	clrz
  5675  0EE3  1803               	skipnc
  5676  0EE4  3E01               	addlw	1
  5677  0EE5  1903               	skipnz
  5678  0EE6  2EE8               	goto	u3962
  5679  0EE7  07BA               	addwf	___flmul@prod+2,f
  5680  0EE8                     u3962:	
  5681  0EE8  082F               	movf	??___flmul+3,w
  5682  0EE9  1103               	clrz
  5683  0EEA  1803               	skipnc
  5684  0EEB  3E01               	addlw	1
  5685  0EEC  1903               	skipnz
  5686  0EED  2EEF               	goto	u3963
  5687  0EEE  07BB               	addwf	___flmul@prod+3,f
  5688  0EEF                     u3963:	
  5689  0EEF                     l2541:	
  5690  0EEF  0832               	movf	___flmul@grs,w
  5691  0EF0  00AC               	movwf	??___flmul
  5692  0EF1  0833               	movf	___flmul@grs+1,w
  5693  0EF2  00AD               	movwf	??___flmul+1
  5694  0EF3  0834               	movf	___flmul@grs+2,w
  5695  0EF4  00AE               	movwf	??___flmul+2
  5696  0EF5  0835               	movf	___flmul@grs+3,w
  5697  0EF6  00AF               	movwf	??___flmul+3
  5698  0EF7  3018               	movlw	24
  5699  0EF8                     u3975:	
  5700  0EF8  1003               	clrc
  5701  0EF9  0CAF               	rrf	??___flmul+3,f
  5702  0EFA  0CAE               	rrf	??___flmul+2,f
  5703  0EFB  0CAD               	rrf	??___flmul+1,f
  5704  0EFC  0CAC               	rrf	??___flmul,f
  5705  0EFD                     u3970:	
  5706  0EFD  3EFF               	addlw	-1
  5707  0EFE  1D03               	skipz
  5708  0EFF  2EF8               	goto	u3975
  5709  0F00  082C               	movf	??___flmul,w
  5710  0F01  07B8               	addwf	___flmul@prod,f
  5711  0F02  082D               	movf	??___flmul+1,w
  5712  0F03  1103               	clrz
  5713  0F04  1803               	skipnc
  5714  0F05  3E01               	addlw	1
  5715  0F06  1903               	skipnz
  5716  0F07  2F09               	goto	u3981
  5717  0F08  07B9               	addwf	___flmul@prod+1,f
  5718  0F09                     u3981:	
  5719  0F09  082E               	movf	??___flmul+2,w
  5720  0F0A  1103               	clrz
  5721  0F0B  1803               	skipnc
  5722  0F0C  3E01               	addlw	1
  5723  0F0D  1903               	skipnz
  5724  0F0E  2F10               	goto	u3982
  5725  0F0F  07BA               	addwf	___flmul@prod+2,f
  5726  0F10                     u3982:	
  5727  0F10  082F               	movf	??___flmul+3,w
  5728  0F11  1103               	clrz
  5729  0F12  1803               	skipnc
  5730  0F13  3E01               	addlw	1
  5731  0F14  1903               	skipnz
  5732  0F15  2F17               	goto	u3983
  5733  0F16  07BB               	addwf	___flmul@prod+3,f
  5734  0F17                     u3983:	
  5735  0F17                     l2543:	
  5736  0F17  3008               	movlw	8
  5737  0F18  00AC               	movwf	??___flmul
  5738  0F19                     u3995:	
  5739  0F19  1003               	clrc
  5740  0F1A  0DB2               	rlf	___flmul@grs,f
  5741  0F1B  0DB3               	rlf	___flmul@grs+1,f
  5742  0F1C  0DB4               	rlf	___flmul@grs+2,f
  5743  0F1D  0DB5               	rlf	___flmul@grs+3,f
  5744  0F1E  0BAC               	decfsz	??___flmul,f
  5745  0F1F  2F19               	goto	u3995
  5746  0F20                     l2545:	
  5747  0F20  0837               	movf	___flmul@bexp,w
  5748  0F21  0736               	addwf	___flmul@aexp,w
  5749  0F22  00AC               	movwf	??___flmul
  5750  0F23  01AD               	clrf	??___flmul+1
  5751  0F24  0DAD               	rlf	??___flmul+1,f
  5752  0F25  082C               	movf	??___flmul,w
  5753  0F26  3E82               	addlw	130
  5754  0F27  00BC               	movwf	___flmul@temp
  5755  0F28  082D               	movf	??___flmul+1,w
  5756  0F29  1803               	skipnc
  5757  0F2A  3E01               	addlw	1
  5758  0F2B  3EFF               	addlw	255
  5759  0F2C  00BD               	movwf	___flmul@temp+1
  5760  0F2D  2F4B               	goto	l2557
  5761  0F2E                     l2547:	
  5762  0F2E  3001               	movlw	1
  5763  0F2F  00AC               	movwf	??___flmul
  5764  0F30                     u4005:	
  5765  0F30  1003               	clrc
  5766  0F31  0DB8               	rlf	___flmul@prod,f
  5767  0F32  0DB9               	rlf	___flmul@prod+1,f
  5768  0F33  0DBA               	rlf	___flmul@prod+2,f
  5769  0F34  0DBB               	rlf	___flmul@prod+3,f
  5770  0F35  0BAC               	decfsz	??___flmul,f
  5771  0F36  2F30               	goto	u4005
  5772  0F37                     l2549:	
  5773  0F37  1FB5               	btfss	___flmul@grs+3,7
  5774  0F38  2F3A               	goto	u4011
  5775  0F39  2F3B               	goto	u4010
  5776  0F3A                     u4011:	
  5777  0F3A  2F3C               	goto	l2553
  5778  0F3B                     u4010:	
  5779  0F3B                     l2551:	
  5780  0F3B  1438               	bsf	___flmul@prod,0
  5781  0F3C                     l2553:	
  5782  0F3C  3001               	movlw	1
  5783  0F3D  00AC               	movwf	??___flmul
  5784  0F3E                     u4025:	
  5785  0F3E  1003               	clrc
  5786  0F3F  0DB2               	rlf	___flmul@grs,f
  5787  0F40  0DB3               	rlf	___flmul@grs+1,f
  5788  0F41  0DB4               	rlf	___flmul@grs+2,f
  5789  0F42  0DB5               	rlf	___flmul@grs+3,f
  5790  0F43  0BAC               	decfsz	??___flmul,f
  5791  0F44  2F3E               	goto	u4025
  5792  0F45                     l2555:	
  5793  0F45  30FF               	movlw	255
  5794  0F46  07BC               	addwf	___flmul@temp,f
  5795  0F47  1803               	skipnc
  5796  0F48  0ABD               	incf	___flmul@temp+1,f
  5797  0F49  30FF               	movlw	255
  5798  0F4A  07BD               	addwf	___flmul@temp+1,f
  5799  0F4B                     l2557:	
  5800  0F4B  1FBA               	btfss	___flmul@prod+2,7
  5801  0F4C  2F4E               	goto	u4031
  5802  0F4D  2F4F               	goto	u4030
  5803  0F4E                     u4031:	
  5804  0F4E  2F2E               	goto	l2547
  5805  0F4F                     u4030:	
  5806  0F4F                     l2559:	
  5807  0F4F  01B6               	clrf	___flmul@aexp
  5808  0F50                     l2561:	
  5809  0F50  1FB5               	btfss	___flmul@grs+3,7
  5810  0F51  2F53               	goto	u4041
  5811  0F52  2F54               	goto	u4040
  5812  0F53                     u4041:	
  5813  0F53  2F70               	goto	l2569
  5814  0F54                     u4040:	
  5815  0F54                     l2563:	
  5816  0F54  30FF               	movlw	255
  5817  0F55  0532               	andwf	___flmul@grs,w
  5818  0F56  00AC               	movwf	??___flmul
  5819  0F57  30FF               	movlw	255
  5820  0F58  0533               	andwf	___flmul@grs+1,w
  5821  0F59  00AD               	movwf	??___flmul+1
  5822  0F5A  30FF               	movlw	255
  5823  0F5B  0534               	andwf	___flmul@grs+2,w
  5824  0F5C  00AE               	movwf	??___flmul+2
  5825  0F5D  307F               	movlw	127
  5826  0F5E  0535               	andwf	___flmul@grs+3,w
  5827  0F5F  00AF               	movwf	??___flmul+3
  5828  0F60  082F               	movf	??___flmul+3,w
  5829  0F61  042E               	iorwf	??___flmul+2,w
  5830  0F62  042D               	iorwf	??___flmul+1,w
  5831  0F63  042C               	iorwf	??___flmul,w
  5832  0F64  1903               	skipnz
  5833  0F65  2F67               	goto	u4051
  5834  0F66  2F68               	goto	u4050
  5835  0F67                     u4051:	
  5836  0F67  2F6B               	goto	l692
  5837  0F68                     u4050:	
  5838  0F68                     l2565:	
  5839  0F68  01B6               	clrf	___flmul@aexp
  5840  0F69  0AB6               	incf	___flmul@aexp,f
  5841  0F6A  2F70               	goto	l2569
  5842  0F6B                     l692:	
  5843  0F6B  1C38               	btfss	___flmul@prod,0
  5844  0F6C  2F6E               	goto	u4061
  5845  0F6D  2F6F               	goto	u4060
  5846  0F6E                     u4061:	
  5847  0F6E  2F70               	goto	l2569
  5848  0F6F                     u4060:	
  5849  0F6F  2F68               	goto	l2565
  5850  0F70                     l2569:	
  5851  0F70  0836               	movf	___flmul@aexp,w
  5852  0F71  1903               	btfsc	3,2
  5853  0F72  2F74               	goto	u4071
  5854  0F73  2F75               	goto	u4070
  5855  0F74                     u4071:	
  5856  0F74  2FA6               	goto	l2579
  5857  0F75                     u4070:	
  5858  0F75                     l2571:	
  5859  0F75  3001               	movlw	1
  5860  0F76  07B8               	addwf	___flmul@prod,f
  5861  0F77  3000               	movlw	0
  5862  0F78  1803               	skipnc
  5863  0F79  3001               	movlw	1
  5864  0F7A  07B9               	addwf	___flmul@prod+1,f
  5865  0F7B  3000               	movlw	0
  5866  0F7C  1803               	skipnc
  5867  0F7D  3001               	movlw	1
  5868  0F7E  07BA               	addwf	___flmul@prod+2,f
  5869  0F7F  3000               	movlw	0
  5870  0F80  1803               	skipnc
  5871  0F81  3001               	movlw	1
  5872  0F82  07BB               	addwf	___flmul@prod+3,f
  5873  0F83                     l2573:	
  5874  0F83  1C3B               	btfss	___flmul@prod+3,0
  5875  0F84  2F86               	goto	u4081
  5876  0F85  2F87               	goto	u4080
  5877  0F86                     u4081:	
  5878  0F86  2FA6               	goto	l2579
  5879  0F87                     u4080:	
  5880  0F87                     l2575:	
  5881  0F87  0838               	movf	___flmul@prod,w
  5882  0F88  00AC               	movwf	??___flmul
  5883  0F89  0839               	movf	___flmul@prod+1,w
  5884  0F8A  00AD               	movwf	??___flmul+1
  5885  0F8B  083A               	movf	___flmul@prod+2,w
  5886  0F8C  00AE               	movwf	??___flmul+2
  5887  0F8D  083B               	movf	___flmul@prod+3,w
  5888  0F8E  00AF               	movwf	??___flmul+3
  5889  0F8F  3001               	movlw	1
  5890  0F90  00B0               	movwf	??___flmul+4
  5891  0F91                     u4095:	
  5892  0F91  0D2F               	rlf	??___flmul+3,w
  5893  0F92  0CAF               	rrf	??___flmul+3,f
  5894  0F93  0CAE               	rrf	??___flmul+2,f
  5895  0F94  0CAD               	rrf	??___flmul+1,f
  5896  0F95  0CAC               	rrf	??___flmul,f
  5897  0F96                     u4090:	
  5898  0F96  0BB0               	decfsz	??___flmul+4,f
  5899  0F97  2F91               	goto	u4095
  5900  0F98  082F               	movf	??___flmul+3,w
  5901  0F99  00BB               	movwf	___flmul@prod+3
  5902  0F9A  082E               	movf	??___flmul+2,w
  5903  0F9B  00BA               	movwf	___flmul@prod+2
  5904  0F9C  082D               	movf	??___flmul+1,w
  5905  0F9D  00B9               	movwf	___flmul@prod+1
  5906  0F9E  082C               	movf	??___flmul,w
  5907  0F9F  00B8               	movwf	___flmul@prod
  5908  0FA0                     l2577:	
  5909  0FA0  3001               	movlw	1
  5910  0FA1  07BC               	addwf	___flmul@temp,f
  5911  0FA2  1803               	skipnc
  5912  0FA3  0ABD               	incf	___flmul@temp+1,f
  5913  0FA4  3000               	movlw	0
  5914  0FA5  07BD               	addwf	___flmul@temp+1,f
  5915  0FA6                     l2579:	
  5916  0FA6  083D               	movf	___flmul@temp+1,w
  5917  0FA7  3A80               	xorlw	128
  5918  0FA8  00FF               	movwf	btemp+1
  5919  0FA9  3080               	movlw	128
  5920  0FAA  027F               	subwf	btemp+1,w
  5921  0FAB  1D03               	skipz
  5922  0FAC  2FAF               	goto	u4105
  5923  0FAD  30FF               	movlw	255
  5924  0FAE  023C               	subwf	___flmul@temp,w
  5925  0FAF                     u4105:	
  5926  0FAF  1C03               	skipc
  5927  0FB0  2FB2               	goto	u4101
  5928  0FB1  2FB3               	goto	u4100
  5929  0FB2                     u4101:	
  5930  0FB2  2FBE               	goto	l2583
  5931  0FB3                     u4100:	
  5932  0FB3                     l2581:	
  5933  0FB3  307F               	movlw	127
  5934  0FB4  1283               	bcf	3,5	;RP0=0, select bank0
  5935  0FB5  1303               	bcf	3,6	;RP1=0, select bank0
  5936  0FB6  00BB               	movwf	___flmul@prod+3
  5937  0FB7  3080               	movlw	128
  5938  0FB8  00BA               	movwf	___flmul@prod+2
  5939  0FB9  3000               	movlw	0
  5940  0FBA  00B9               	movwf	___flmul@prod+1
  5941  0FBB  3000               	movlw	0
  5942  0FBC  00B8               	movwf	___flmul@prod
  5943  0FBD  2FF3               	goto	l698
  5944  0FBE                     l2583:	
  5945  0FBE  1283               	bcf	3,5	;RP0=0, select bank0
  5946  0FBF  1303               	bcf	3,6	;RP1=0, select bank0
  5947  0FC0  083D               	movf	___flmul@temp+1,w
  5948  0FC1  3A80               	xorlw	128
  5949  0FC2  00FF               	movwf	btemp+1
  5950  0FC3  3080               	movlw	128
  5951  0FC4  027F               	subwf	btemp+1,w
  5952  0FC5  1D03               	skipz
  5953  0FC6  2FC9               	goto	u4115
  5954  0FC7  3001               	movlw	1
  5955  0FC8  023C               	subwf	___flmul@temp,w
  5956  0FC9                     u4115:	
  5957  0FC9  1803               	skipnc
  5958  0FCA  2FCC               	goto	u4111
  5959  0FCB  2FCD               	goto	u4110
  5960  0FCC                     u4111:	
  5961  0FCC  2FD9               	goto	l2589
  5962  0FCD                     u4110:	
  5963  0FCD                     l2585:	
  5964  0FCD  3000               	movlw	0
  5965  0FCE  1283               	bcf	3,5	;RP0=0, select bank0
  5966  0FCF  1303               	bcf	3,6	;RP1=0, select bank0
  5967  0FD0  00BB               	movwf	___flmul@prod+3
  5968  0FD1  3000               	movlw	0
  5969  0FD2  00BA               	movwf	___flmul@prod+2
  5970  0FD3  3000               	movlw	0
  5971  0FD4  00B9               	movwf	___flmul@prod+1
  5972  0FD5  3000               	movlw	0
  5973  0FD6  00B8               	movwf	___flmul@prod
  5974  0FD7                     l2587:	
  5975  0FD7  01B1               	clrf	___flmul@sign
  5976  0FD8  2FF3               	goto	l698
  5977  0FD9                     l2589:	
  5978  0FD9  1283               	bcf	3,5	;RP0=0, select bank0
  5979  0FDA  1303               	bcf	3,6	;RP1=0, select bank0
  5980  0FDB  083C               	movf	___flmul@temp,w
  5981  0FDC  00AC               	movwf	??___flmul
  5982  0FDD  082C               	movf	??___flmul,w
  5983  0FDE  00B7               	movwf	___flmul@bexp
  5984  0FDF  30FF               	movlw	255
  5985  0FE0  05B8               	andwf	___flmul@prod,f
  5986  0FE1  30FF               	movlw	255
  5987  0FE2  05B9               	andwf	___flmul@prod+1,f
  5988  0FE3  307F               	movlw	127
  5989  0FE4  05BA               	andwf	___flmul@prod+2,f
  5990  0FE5  3000               	movlw	0
  5991  0FE6  05BB               	andwf	___flmul@prod+3,f
  5992  0FE7                     l2591:	
  5993  0FE7  1C37               	btfss	___flmul@bexp,0
  5994  0FE8  2FEA               	goto	u4121
  5995  0FE9  2FEB               	goto	u4120
  5996  0FEA                     u4121:	
  5997  0FEA  2FEC               	goto	l2595
  5998  0FEB                     u4120:	
  5999  0FEB                     l2593:	
  6000  0FEB  17BA               	bsf	___flmul@prod+2,7
  6001  0FEC                     l2595:	
  6002  0FEC  0837               	movf	___flmul@bexp,w
  6003  0FED  00AC               	movwf	??___flmul
  6004  0FEE  1003               	clrc
  6005  0FEF  0C2C               	rrf	??___flmul,w
  6006  0FF0  00AD               	movwf	??___flmul+1
  6007  0FF1  082D               	movf	??___flmul+1,w
  6008  0FF2  00BB               	movwf	___flmul@prod+3
  6009  0FF3                     l698:	
  6010  0FF3  0831               	movf	___flmul@sign,w
  6011  0FF4  00AC               	movwf	??___flmul
  6012  0FF5  082C               	movf	??___flmul,w
  6013  0FF6  04BB               	iorwf	___flmul@prod+3,f
  6014  0FF7                     l2597:	
  6015  0FF7  083B               	movf	___flmul@prod+3,w
  6016  0FF8  00A7               	movwf	?___flmul+3
  6017  0FF9  083A               	movf	___flmul@prod+2,w
  6018  0FFA  00A6               	movwf	?___flmul+2
  6019  0FFB  0839               	movf	___flmul@prod+1,w
  6020  0FFC  00A5               	movwf	?___flmul+1
  6021  0FFD  0838               	movf	___flmul@prod,w
  6022  0FFE  00A4               	movwf	?___flmul
  6023  0FFF                     l686:	
  6024  0FFF  0008               	return
  6025  1000                     __end_of___flmul:	
  6026                           
  6027                           	psect	text11
  6028  1C44                     __ptext11:	
  6029 ;; *************** function __Umul8_16 *****************
  6030 ;; Defined at:
  6031 ;;		line 4 in file "C:\Program Files (x86)\Microchip\xc8\v2.10\pic\sources\c90\common\Umul8_16.c"
  6032 ;; Parameters:    Size  Location     Type
  6033 ;;  multiplier      1    wreg     unsigned char 
  6034 ;;  multiplicand    1    0[COMMON] unsigned char 
  6035 ;; Auto vars:     Size  Location     Type
  6036 ;;  multiplier      1    8[COMMON] unsigned char 
  6037 ;;  word_mpld       2    6[COMMON] unsigned int 
  6038 ;;  product         2    4[COMMON] unsigned int 
  6039 ;; Return value:  Size  Location     Type
  6040 ;;                  2    0[COMMON] unsigned int 
  6041 ;; Registers used:
  6042 ;;		wreg, status,2, status,0
  6043 ;; Tracked objects:
  6044 ;;		On entry : 0/0
  6045 ;;		On exit  : 0/0
  6046 ;;		Unchanged: 0/0
  6047 ;; Data sizes:     COMMON   BANK0   BANK1   BANK3   BANK2
  6048 ;;      Params:         2       0       0       0       0
  6049 ;;      Locals:         5       0       0       0       0
  6050 ;;      Temps:          2       0       0       0       0
  6051 ;;      Totals:         9       0       0       0       0
  6052 ;;Total ram usage:        9 bytes
  6053 ;; Hardware stack levels used:    1
  6054 ;; This function calls:
  6055 ;;		Nothing
  6056 ;; This function is called by:
  6057 ;;		___flmul
  6058 ;; This function uses a non-reentrant model
  6059 ;;
  6060                           
  6061                           
  6062                           ;psect for function __Umul8_16
  6063  1C44                     __Umul8_16:	
  6064                           
  6065                           ;incstack = 0
  6066                           ; Regs used in __Umul8_16: [wreg+status,2+status,0]
  6067                           ;__Umul8_16@multiplier stored from wreg
  6068  1C44  00F8               	movwf	__Umul8_16@multiplier
  6069  1C45                     l2113:	
  6070  1C45  01F4               	clrf	__Umul8_16@product
  6071  1C46  01F5               	clrf	__Umul8_16@product+1
  6072  1C47                     l2115:	
  6073  1C47  0870               	movf	__Umul8_16@multiplicand,w
  6074  1C48  00F2               	movwf	??__Umul8_16
  6075  1C49  01F3               	clrf	??__Umul8_16+1
  6076  1C4A  0872               	movf	??__Umul8_16,w
  6077  1C4B  00F6               	movwf	__Umul8_16@word_mpld
  6078  1C4C  0873               	movf	??__Umul8_16+1,w
  6079  1C4D  00F7               	movwf	__Umul8_16@word_mpld+1
  6080  1C4E                     l2117:	
  6081  1C4E  1C78               	btfss	__Umul8_16@multiplier,0
  6082  1C4F  2C51               	goto	u2911
  6083  1C50  2C52               	goto	u2910
  6084  1C51                     u2911:	
  6085  1C51  2C58               	goto	l747
  6086  1C52                     u2910:	
  6087  1C52                     l2119:	
  6088  1C52  0876               	movf	__Umul8_16@word_mpld,w
  6089  1C53  07F4               	addwf	__Umul8_16@product,f
  6090  1C54  1803               	skipnc
  6091  1C55  0AF5               	incf	__Umul8_16@product+1,f
  6092  1C56  0877               	movf	__Umul8_16@word_mpld+1,w
  6093  1C57  07F5               	addwf	__Umul8_16@product+1,f
  6094  1C58                     l747:	
  6095  1C58  3001               	movlw	1
  6096  1C59                     u2925:	
  6097  1C59  1003               	clrc
  6098  1C5A  0DF6               	rlf	__Umul8_16@word_mpld,f
  6099  1C5B  0DF7               	rlf	__Umul8_16@word_mpld+1,f
  6100  1C5C  3EFF               	addlw	-1
  6101  1C5D  1D03               	skipz
  6102  1C5E  2C59               	goto	u2925
  6103  1C5F  1003               	clrc
  6104  1C60  0CF8               	rrf	__Umul8_16@multiplier,f
  6105  1C61                     l2121:	
  6106  1C61  0878               	movf	__Umul8_16@multiplier,w
  6107  1C62  1D03               	btfss	3,2
  6108  1C63  2C65               	goto	u2931
  6109  1C64  2C66               	goto	u2930
  6110  1C65                     u2931:	
  6111  1C65  2C4E               	goto	l2117
  6112  1C66                     u2930:	
  6113  1C66                     l2123:	
  6114  1C66  0875               	movf	__Umul8_16@product+1,w
  6115  1C67  00F1               	movwf	?__Umul8_16+1
  6116  1C68  0874               	movf	__Umul8_16@product,w
  6117  1C69  00F0               	movwf	?__Umul8_16
  6118  1C6A                     l749:	
  6119  1C6A  0008               	return
  6120  1C6B                     __end_of__Umul8_16:	
  6121                           
  6122                           	psect	text12
  6123  1220                     __ptext12:	
  6124 ;; *************** function __tdiv_to_l_ *****************
  6125 ;; Defined at:
  6126 ;;		line 60 in file "C:\Program Files (x86)\Microchip\xc8\v2.10\pic\sources\c90\common\ftdivl.c"
  6127 ;; Parameters:    Size  Location     Type
  6128 ;;  f1              4    0[COMMON] float 
  6129 ;;  f2              4    4[COMMON] float 
  6130 ;; Auto vars:     Size  Location     Type
  6131 ;;  quot            4    0[BANK0 ] unsigned long 
  6132 ;;  exp1            1    5[BANK0 ] unsigned char 
  6133 ;;  cntr            1    4[BANK0 ] unsigned char 
  6134 ;; Return value:  Size  Location     Type
  6135 ;;                  4    0[COMMON] unsigned long 
  6136 ;; Registers used:
  6137 ;;		wreg, status,2, status,0
  6138 ;; Tracked objects:
  6139 ;;		On entry : 0/0
  6140 ;;		On exit  : 0/0
  6141 ;;		Unchanged: 0/0
  6142 ;; Data sizes:     COMMON   BANK0   BANK1   BANK3   BANK2
  6143 ;;      Params:         8       0       0       0       0
  6144 ;;      Locals:         0       6       0       0       0
  6145 ;;      Temps:          4       0       0       0       0
  6146 ;;      Totals:        12       6       0       0       0
  6147 ;;Total ram usage:       18 bytes
  6148 ;; Hardware stack levels used:    1
  6149 ;; This function calls:
  6150 ;;		Nothing
  6151 ;; This function is called by:
  6152 ;;		_sprintf
  6153 ;; This function uses a non-reentrant model
  6154 ;;
  6155                           
  6156                           
  6157                           ;psect for function __tdiv_to_l_
  6158  1220                     __tdiv_to_l_:	
  6159  1220                     l2685:	
  6160                           ;incstack = 0
  6161                           ; Regs used in __tdiv_to_l_: [wreg+status,2+status,0]
  6162                           
  6163  1220  0870               	movf	__tdiv_to_l_@f1,w
  6164  1221  00F8               	movwf	??__tdiv_to_l_
  6165  1222  0871               	movf	__tdiv_to_l_@f1+1,w
  6166  1223  00F9               	movwf	??__tdiv_to_l_+1
  6167  1224  0872               	movf	__tdiv_to_l_@f1+2,w
  6168  1225  00FA               	movwf	??__tdiv_to_l_+2
  6169  1226  1003               	clrc
  6170  1227  0D79               	rlf	??__tdiv_to_l_+1,w
  6171  1228  0D7A               	rlf	??__tdiv_to_l_+2,w
  6172  1229  00FB               	movwf	??__tdiv_to_l_+3
  6173  122A  087B               	movf	??__tdiv_to_l_+3,w
  6174  122B  1283               	bcf	3,5	;RP0=0, select bank0
  6175  122C  1303               	bcf	3,6	;RP1=0, select bank0
  6176  122D  00A5               	movwf	__tdiv_to_l_@exp1
  6177  122E  0825               	movf	__tdiv_to_l_@exp1,w
  6178  122F  1D03               	btfss	3,2
  6179  1230  2A32               	goto	u4391
  6180  1231  2A33               	goto	u4390
  6181  1232                     u4391:	
  6182  1232  2A3C               	goto	l2691
  6183  1233                     u4390:	
  6184  1233                     l2687:	
  6185  1233  3000               	movlw	0
  6186  1234  00F3               	movwf	?__tdiv_to_l_+3
  6187  1235  3000               	movlw	0
  6188  1236  00F2               	movwf	?__tdiv_to_l_+2
  6189  1237  3000               	movlw	0
  6190  1238  00F1               	movwf	?__tdiv_to_l_+1
  6191  1239  3000               	movlw	0
  6192  123A  00F0               	movwf	?__tdiv_to_l_
  6193  123B  2ADC               	goto	l480
  6194  123C                     l2691:	
  6195  123C  0874               	movf	__tdiv_to_l_@f2,w
  6196  123D  00F8               	movwf	??__tdiv_to_l_
  6197  123E  0875               	movf	__tdiv_to_l_@f2+1,w
  6198  123F  00F9               	movwf	??__tdiv_to_l_+1
  6199  1240  0876               	movf	__tdiv_to_l_@f2+2,w
  6200  1241  00FA               	movwf	??__tdiv_to_l_+2
  6201  1242  1003               	clrc
  6202  1243  0D79               	rlf	??__tdiv_to_l_+1,w
  6203  1244  0D7A               	rlf	??__tdiv_to_l_+2,w
  6204  1245  00FB               	movwf	??__tdiv_to_l_+3
  6205  1246  087B               	movf	??__tdiv_to_l_+3,w
  6206  1247  00A4               	movwf	__tdiv_to_l_@cntr
  6207  1248  0824               	movf	__tdiv_to_l_@cntr,w
  6208  1249  1D03               	btfss	3,2
  6209  124A  2A4C               	goto	u4401
  6210  124B  2A4D               	goto	u4400
  6211  124C                     u4401:	
  6212  124C  2A4E               	goto	l481
  6213  124D                     u4400:	
  6214  124D  2A33               	goto	l2687
  6215  124E                     l481:	
  6216  124E  17F1               	bsf	__tdiv_to_l_@f1+1,7
  6217  124F                     l2697:	
  6218  124F  30FF               	movlw	255
  6219  1250  05F0               	andwf	__tdiv_to_l_@f1,f
  6220  1251  30FF               	movlw	255
  6221  1252  05F1               	andwf	__tdiv_to_l_@f1+1,f
  6222  1253  3000               	movlw	0
  6223  1254  05F2               	andwf	__tdiv_to_l_@f1+2,f
  6224  1255                     l2699:	
  6225  1255  17F5               	bsf	__tdiv_to_l_@f2+1,7
  6226  1256  30FF               	movlw	255
  6227  1257  05F4               	andwf	__tdiv_to_l_@f2,f
  6228  1258  30FF               	movlw	255
  6229  1259  05F5               	andwf	__tdiv_to_l_@f2+1,f
  6230  125A  3000               	movlw	0
  6231  125B  05F6               	andwf	__tdiv_to_l_@f2+2,f
  6232  125C  3000               	movlw	0
  6233  125D  00A3               	movwf	__tdiv_to_l_@quot+3
  6234  125E  3000               	movlw	0
  6235  125F  00A2               	movwf	__tdiv_to_l_@quot+2
  6236  1260  3000               	movlw	0
  6237  1261  00A1               	movwf	__tdiv_to_l_@quot+1
  6238  1262  3000               	movlw	0
  6239  1263  00A0               	movwf	__tdiv_to_l_@quot
  6240  1264                     l2701:	
  6241  1264  307F               	movlw	127
  6242  1265  02A5               	subwf	__tdiv_to_l_@exp1,f
  6243  1266                     l2703:	
  6244  1266  3098               	movlw	152
  6245  1267  0724               	addwf	__tdiv_to_l_@cntr,w
  6246  1268  00F8               	movwf	??__tdiv_to_l_
  6247  1269  0878               	movf	??__tdiv_to_l_,w
  6248  126A  02A5               	subwf	__tdiv_to_l_@exp1,f
  6249  126B  3018               	movlw	24
  6250  126C  00F8               	movwf	??__tdiv_to_l_
  6251  126D  0878               	movf	??__tdiv_to_l_,w
  6252  126E  00A4               	movwf	__tdiv_to_l_@cntr
  6253  126F                     l2705:	
  6254  126F  3001               	movlw	1
  6255  1270  00F8               	movwf	??__tdiv_to_l_
  6256  1271                     u4415:	
  6257  1271  1003               	clrc
  6258  1272  0DA0               	rlf	__tdiv_to_l_@quot,f
  6259  1273  0DA1               	rlf	__tdiv_to_l_@quot+1,f
  6260  1274  0DA2               	rlf	__tdiv_to_l_@quot+2,f
  6261  1275  0DA3               	rlf	__tdiv_to_l_@quot+3,f
  6262  1276  0BF8               	decfsz	??__tdiv_to_l_,f
  6263  1277  2A71               	goto	u4415
  6264  1278                     l2707:	
  6265  1278  0876               	movf	__tdiv_to_l_@f2+2,w
  6266  1279  0272               	subwf	__tdiv_to_l_@f1+2,w
  6267  127A  1D03               	skipz
  6268  127B  2A82               	goto	u4425
  6269  127C  0875               	movf	__tdiv_to_l_@f2+1,w
  6270  127D  0271               	subwf	__tdiv_to_l_@f1+1,w
  6271  127E  1D03               	skipz
  6272  127F  2A82               	goto	u4425
  6273  1280  0874               	movf	__tdiv_to_l_@f2,w
  6274  1281  0270               	subwf	__tdiv_to_l_@f1,w
  6275  1282                     u4425:	
  6276  1282  1C03               	skipc
  6277  1283  2A85               	goto	u4421
  6278  1284  2A86               	goto	u4420
  6279  1285                     u4421:	
  6280  1285  2A91               	goto	l2713
  6281  1286                     u4420:	
  6282  1286                     l2709:	
  6283  1286  0874               	movf	__tdiv_to_l_@f2,w
  6284  1287  02F0               	subwf	__tdiv_to_l_@f1,f
  6285  1288  0875               	movf	__tdiv_to_l_@f2+1,w
  6286  1289  1C03               	skipc
  6287  128A  0F75               	incfsz	__tdiv_to_l_@f2+1,w
  6288  128B  02F1               	subwf	__tdiv_to_l_@f1+1,f
  6289  128C  0876               	movf	__tdiv_to_l_@f2+2,w
  6290  128D  1C03               	skipc
  6291  128E  0A76               	incf	__tdiv_to_l_@f2+2,w
  6292  128F  02F2               	subwf	__tdiv_to_l_@f1+2,f
  6293  1290                     l2711:	
  6294  1290  1420               	bsf	__tdiv_to_l_@quot,0
  6295  1291                     l2713:	
  6296  1291  3001               	movlw	1
  6297  1292                     u4435:	
  6298  1292  1003               	clrc
  6299  1293  0DF0               	rlf	__tdiv_to_l_@f1,f
  6300  1294  0DF1               	rlf	__tdiv_to_l_@f1+1,f
  6301  1295  0DF2               	rlf	__tdiv_to_l_@f1+2,f
  6302  1296  3EFF               	addlw	-1
  6303  1297  1D03               	skipz
  6304  1298  2A92               	goto	u4435
  6305  1299                     l2715:	
  6306  1299  3001               	movlw	1
  6307  129A  02A4               	subwf	__tdiv_to_l_@cntr,f
  6308  129B  1D03               	btfss	3,2
  6309  129C  2A9E               	goto	u4441
  6310  129D  2A9F               	goto	u4440
  6311  129E                     u4441:	
  6312  129E  2A6F               	goto	l2705
  6313  129F                     u4440:	
  6314  129F                     l484:	
  6315  129F  1FA5               	btfss	__tdiv_to_l_@exp1,7
  6316  12A0  2AA2               	goto	u4451
  6317  12A1  2AA3               	goto	u4450
  6318  12A2                     u4451:	
  6319  12A2  2ABD               	goto	l2725
  6320  12A3                     u4450:	
  6321  12A3                     l2717:	
  6322  12A3  0825               	movf	__tdiv_to_l_@exp1,w
  6323  12A4  3A80               	xorlw	128
  6324  12A5  3E97               	addlw	151
  6325  12A6  1803               	skipnc
  6326  12A7  2AA9               	goto	u4461
  6327  12A8  2AAA               	goto	u4460
  6328  12A9                     u4461:	
  6329  12A9  2AAB               	goto	l2723
  6330  12AA                     u4460:	
  6331  12AA  2A33               	goto	l2687
  6332  12AB                     l2723:	
  6333  12AB  3001               	movlw	1
  6334  12AC                     u4475:	
  6335  12AC  1003               	clrc
  6336  12AD  0CA3               	rrf	__tdiv_to_l_@quot+3,f
  6337  12AE  0CA2               	rrf	__tdiv_to_l_@quot+2,f
  6338  12AF  0CA1               	rrf	__tdiv_to_l_@quot+1,f
  6339  12B0  0CA0               	rrf	__tdiv_to_l_@quot,f
  6340  12B1  3EFF               	addlw	-1
  6341  12B2  1D03               	skipz
  6342  12B3  2AAC               	goto	u4475
  6343  12B4  3001               	movlw	1
  6344  12B5  00F8               	movwf	??__tdiv_to_l_
  6345  12B6  0878               	movf	??__tdiv_to_l_,w
  6346  12B7  07A5               	addwf	__tdiv_to_l_@exp1,f
  6347  12B8  1D03               	btfss	3,2
  6348  12B9  2ABB               	goto	u4481
  6349  12BA  2ABC               	goto	u4480
  6350  12BB                     u4481:	
  6351  12BB  2AAB               	goto	l2723
  6352  12BC                     u4480:	
  6353  12BC  2AD4               	goto	l2733
  6354  12BD                     l2725:	
  6355  12BD  3018               	movlw	24
  6356  12BE  0225               	subwf	__tdiv_to_l_@exp1,w
  6357  12BF  1C03               	skipc
  6358  12C0  2AC2               	goto	u4491
  6359  12C1  2AC3               	goto	u4490
  6360  12C2                     u4491:	
  6361  12C2  2ACF               	goto	l491
  6362  12C3                     u4490:	
  6363  12C3  2A33               	goto	l2687
  6364  12C4                     l2731:	
  6365  12C4  3001               	movlw	1
  6366  12C5  00F8               	movwf	??__tdiv_to_l_
  6367  12C6                     u4505:	
  6368  12C6  1003               	clrc
  6369  12C7  0DA0               	rlf	__tdiv_to_l_@quot,f
  6370  12C8  0DA1               	rlf	__tdiv_to_l_@quot+1,f
  6371  12C9  0DA2               	rlf	__tdiv_to_l_@quot+2,f
  6372  12CA  0DA3               	rlf	__tdiv_to_l_@quot+3,f
  6373  12CB  0BF8               	decfsz	??__tdiv_to_l_,f
  6374  12CC  2AC6               	goto	u4505
  6375  12CD  3001               	movlw	1
  6376  12CE  02A5               	subwf	__tdiv_to_l_@exp1,f
  6377  12CF                     l491:	
  6378  12CF  0825               	movf	__tdiv_to_l_@exp1,w
  6379  12D0  1D03               	btfss	3,2
  6380  12D1  2AD3               	goto	u4511
  6381  12D2  2AD4               	goto	u4510
  6382  12D3                     u4511:	
  6383  12D3  2AC4               	goto	l2731
  6384  12D4                     u4510:	
  6385  12D4                     l2733:	
  6386  12D4  0823               	movf	__tdiv_to_l_@quot+3,w
  6387  12D5  00F3               	movwf	?__tdiv_to_l_+3
  6388  12D6  0822               	movf	__tdiv_to_l_@quot+2,w
  6389  12D7  00F2               	movwf	?__tdiv_to_l_+2
  6390  12D8  0821               	movf	__tdiv_to_l_@quot+1,w
  6391  12D9  00F1               	movwf	?__tdiv_to_l_+1
  6392  12DA  0820               	movf	__tdiv_to_l_@quot,w
  6393  12DB  00F0               	movwf	?__tdiv_to_l_
  6394  12DC                     l480:	
  6395  12DC  0008               	return
  6396  12DD                     __end_of__tdiv_to_l_:	
  6397                           
  6398                           	psect	text13
  6399  12DD                     __ptext13:	
  6400 ;; *************** function __div_to_l_ *****************
  6401 ;; Defined at:
  6402 ;;		line 60 in file "C:\Program Files (x86)\Microchip\xc8\v2.10\pic\sources\c90\common\fldivl.c"
  6403 ;; Parameters:    Size  Location     Type
  6404 ;;  f1              4    0[COMMON] unsigned long 
  6405 ;;  f2              4    4[COMMON] unsigned long 
  6406 ;; Auto vars:     Size  Location     Type
  6407 ;;  quot            4    0[BANK0 ] unsigned long 
  6408 ;;  exp1            1    5[BANK0 ] unsigned char 
  6409 ;;  cntr            1    4[BANK0 ] unsigned char 
  6410 ;; Return value:  Size  Location     Type
  6411 ;;                  4    0[COMMON] unsigned long 
  6412 ;; Registers used:
  6413 ;;		wreg, status,2, status,0
  6414 ;; Tracked objects:
  6415 ;;		On entry : 0/0
  6416 ;;		On exit  : 0/0
  6417 ;;		Unchanged: 0/0
  6418 ;; Data sizes:     COMMON   BANK0   BANK1   BANK3   BANK2
  6419 ;;      Params:         8       0       0       0       0
  6420 ;;      Locals:         0       6       0       0       0
  6421 ;;      Temps:          1       0       0       0       0
  6422 ;;      Totals:         9       6       0       0       0
  6423 ;;Total ram usage:       15 bytes
  6424 ;; Hardware stack levels used:    1
  6425 ;; This function calls:
  6426 ;;		Nothing
  6427 ;; This function is called by:
  6428 ;;		_sprintf
  6429 ;; This function uses a non-reentrant model
  6430 ;;
  6431                           
  6432                           
  6433                           ;psect for function __div_to_l_
  6434  12DD                     __div_to_l_:	
  6435  12DD                     l2737:	
  6436                           ;incstack = 0
  6437                           ; Regs used in __div_to_l_: [wreg+status,2+status,0]
  6438                           
  6439  12DD  1003               	clrc
  6440  12DE  0D72               	rlf	__div_to_l_@f1+2,w
  6441  12DF  0D73               	rlf	__div_to_l_@f1+3,w
  6442  12E0  00F8               	movwf	??__div_to_l_
  6443  12E1  0878               	movf	??__div_to_l_,w
  6444  12E2  1283               	bcf	3,5	;RP0=0, select bank0
  6445  12E3  1303               	bcf	3,6	;RP1=0, select bank0
  6446  12E4  00A5               	movwf	__div_to_l_@exp1
  6447  12E5  0825               	movf	__div_to_l_@exp1,w
  6448  12E6  1D03               	btfss	3,2
  6449  12E7  2AE9               	goto	u4521
  6450  12E8  2AEA               	goto	u4520
  6451  12E9                     u4521:	
  6452  12E9  2AF3               	goto	l2743
  6453  12EA                     u4520:	
  6454  12EA                     l2739:	
  6455  12EA  3000               	movlw	0
  6456  12EB  00F3               	movwf	?__div_to_l_+3
  6457  12EC  3000               	movlw	0
  6458  12ED  00F2               	movwf	?__div_to_l_+2
  6459  12EE  3000               	movlw	0
  6460  12EF  00F1               	movwf	?__div_to_l_+1
  6461  12F0  3000               	movlw	0
  6462  12F1  00F0               	movwf	?__div_to_l_
  6463  12F2  2B9A               	goto	l433
  6464  12F3                     l2743:	
  6465  12F3  1003               	clrc
  6466  12F4  0D76               	rlf	__div_to_l_@f2+2,w
  6467  12F5  0D77               	rlf	__div_to_l_@f2+3,w
  6468  12F6  00F8               	movwf	??__div_to_l_
  6469  12F7  0878               	movf	??__div_to_l_,w
  6470  12F8  00A4               	movwf	__div_to_l_@cntr
  6471  12F9  0824               	movf	__div_to_l_@cntr,w
  6472  12FA  1D03               	btfss	3,2
  6473  12FB  2AFD               	goto	u4531
  6474  12FC  2AFE               	goto	u4530
  6475  12FD                     u4531:	
  6476  12FD  2AFF               	goto	l434
  6477  12FE                     u4530:	
  6478  12FE  2AEA               	goto	l2739
  6479  12FF                     l434:	
  6480  12FF  17F2               	bsf	__div_to_l_@f1+2,7
  6481  1300                     l2749:	
  6482  1300  30FF               	movlw	255
  6483  1301  05F0               	andwf	__div_to_l_@f1,f
  6484  1302  30FF               	movlw	255
  6485  1303  05F1               	andwf	__div_to_l_@f1+1,f
  6486  1304  30FF               	movlw	255
  6487  1305  05F2               	andwf	__div_to_l_@f1+2,f
  6488  1306  3000               	movlw	0
  6489  1307  05F3               	andwf	__div_to_l_@f1+3,f
  6490  1308                     l2751:	
  6491  1308  17F6               	bsf	__div_to_l_@f2+2,7
  6492  1309  30FF               	movlw	255
  6493  130A  05F4               	andwf	__div_to_l_@f2,f
  6494  130B  30FF               	movlw	255
  6495  130C  05F5               	andwf	__div_to_l_@f2+1,f
  6496  130D  30FF               	movlw	255
  6497  130E  05F6               	andwf	__div_to_l_@f2+2,f
  6498  130F  3000               	movlw	0
  6499  1310  05F7               	andwf	__div_to_l_@f2+3,f
  6500  1311  3000               	movlw	0
  6501  1312  00A3               	movwf	__div_to_l_@quot+3
  6502  1313  3000               	movlw	0
  6503  1314  00A2               	movwf	__div_to_l_@quot+2
  6504  1315  3000               	movlw	0
  6505  1316  00A1               	movwf	__div_to_l_@quot+1
  6506  1317  3000               	movlw	0
  6507  1318  00A0               	movwf	__div_to_l_@quot
  6508  1319                     l2753:	
  6509  1319  307F               	movlw	127
  6510  131A  02A5               	subwf	__div_to_l_@exp1,f
  6511  131B                     l2755:	
  6512  131B  30A0               	movlw	160
  6513  131C  0724               	addwf	__div_to_l_@cntr,w
  6514  131D  00F8               	movwf	??__div_to_l_
  6515  131E  0878               	movf	??__div_to_l_,w
  6516  131F  02A5               	subwf	__div_to_l_@exp1,f
  6517  1320  3020               	movlw	32
  6518  1321  00F8               	movwf	??__div_to_l_
  6519  1322  0878               	movf	??__div_to_l_,w
  6520  1323  00A4               	movwf	__div_to_l_@cntr
  6521  1324                     l2757:	
  6522  1324  3001               	movlw	1
  6523  1325  00F8               	movwf	??__div_to_l_
  6524  1326                     u4545:	
  6525  1326  1003               	clrc
  6526  1327  0DA0               	rlf	__div_to_l_@quot,f
  6527  1328  0DA1               	rlf	__div_to_l_@quot+1,f
  6528  1329  0DA2               	rlf	__div_to_l_@quot+2,f
  6529  132A  0DA3               	rlf	__div_to_l_@quot+3,f
  6530  132B  0BF8               	decfsz	??__div_to_l_,f
  6531  132C  2B26               	goto	u4545
  6532  132D                     l2759:	
  6533  132D  0877               	movf	__div_to_l_@f2+3,w
  6534  132E  0273               	subwf	__div_to_l_@f1+3,w
  6535  132F  1D03               	skipz
  6536  1330  2B3B               	goto	u4555
  6537  1331  0876               	movf	__div_to_l_@f2+2,w
  6538  1332  0272               	subwf	__div_to_l_@f1+2,w
  6539  1333  1D03               	skipz
  6540  1334  2B3B               	goto	u4555
  6541  1335  0875               	movf	__div_to_l_@f2+1,w
  6542  1336  0271               	subwf	__div_to_l_@f1+1,w
  6543  1337  1D03               	skipz
  6544  1338  2B3B               	goto	u4555
  6545  1339  0874               	movf	__div_to_l_@f2,w
  6546  133A  0270               	subwf	__div_to_l_@f1,w
  6547  133B                     u4555:	
  6548  133B  1C03               	skipc
  6549  133C  2B3E               	goto	u4551
  6550  133D  2B3F               	goto	u4550
  6551  133E                     u4551:	
  6552  133E  2B4E               	goto	l2765
  6553  133F                     u4550:	
  6554  133F                     l2761:	
  6555  133F  0874               	movf	__div_to_l_@f2,w
  6556  1340  02F0               	subwf	__div_to_l_@f1,f
  6557  1341  0875               	movf	__div_to_l_@f2+1,w
  6558  1342  1C03               	skipc
  6559  1343  0F75               	incfsz	__div_to_l_@f2+1,w
  6560  1344  02F1               	subwf	__div_to_l_@f1+1,f
  6561  1345  0876               	movf	__div_to_l_@f2+2,w
  6562  1346  1C03               	skipc
  6563  1347  0F76               	incfsz	__div_to_l_@f2+2,w
  6564  1348  02F2               	subwf	__div_to_l_@f1+2,f
  6565  1349  0877               	movf	__div_to_l_@f2+3,w
  6566  134A  1C03               	skipc
  6567  134B  0F77               	incfsz	__div_to_l_@f2+3,w
  6568  134C  02F3               	subwf	__div_to_l_@f1+3,f
  6569  134D                     l2763:	
  6570  134D  1420               	bsf	__div_to_l_@quot,0
  6571  134E                     l2765:	
  6572  134E  3001               	movlw	1
  6573  134F  00F8               	movwf	??__div_to_l_
  6574  1350                     u4565:	
  6575  1350  1003               	clrc
  6576  1351  0DF0               	rlf	__div_to_l_@f1,f
  6577  1352  0DF1               	rlf	__div_to_l_@f1+1,f
  6578  1353  0DF2               	rlf	__div_to_l_@f1+2,f
  6579  1354  0DF3               	rlf	__div_to_l_@f1+3,f
  6580  1355  0BF8               	decfsz	??__div_to_l_,f
  6581  1356  2B50               	goto	u4565
  6582  1357                     l2767:	
  6583  1357  3001               	movlw	1
  6584  1358  02A4               	subwf	__div_to_l_@cntr,f
  6585  1359  1D03               	btfss	3,2
  6586  135A  2B5C               	goto	u4571
  6587  135B  2B5D               	goto	u4570
  6588  135C                     u4571:	
  6589  135C  2B24               	goto	l2757
  6590  135D                     u4570:	
  6591  135D                     l437:	
  6592  135D  1FA5               	btfss	__div_to_l_@exp1,7
  6593  135E  2B60               	goto	u4581
  6594  135F  2B61               	goto	u4580
  6595  1360                     u4581:	
  6596  1360  2B7B               	goto	l2777
  6597  1361                     u4580:	
  6598  1361                     l2769:	
  6599  1361  0825               	movf	__div_to_l_@exp1,w
  6600  1362  3A80               	xorlw	128
  6601  1363  3E9F               	addlw	159
  6602  1364  1803               	skipnc
  6603  1365  2B67               	goto	u4591
  6604  1366  2B68               	goto	u4590
  6605  1367                     u4591:	
  6606  1367  2B69               	goto	l2775
  6607  1368                     u4590:	
  6608  1368  2AEA               	goto	l2739
  6609  1369                     l2775:	
  6610  1369  3001               	movlw	1
  6611  136A                     u4605:	
  6612  136A  1003               	clrc
  6613  136B  0CA3               	rrf	__div_to_l_@quot+3,f
  6614  136C  0CA2               	rrf	__div_to_l_@quot+2,f
  6615  136D  0CA1               	rrf	__div_to_l_@quot+1,f
  6616  136E  0CA0               	rrf	__div_to_l_@quot,f
  6617  136F  3EFF               	addlw	-1
  6618  1370  1D03               	skipz
  6619  1371  2B6A               	goto	u4605
  6620  1372  3001               	movlw	1
  6621  1373  00F8               	movwf	??__div_to_l_
  6622  1374  0878               	movf	??__div_to_l_,w
  6623  1375  07A5               	addwf	__div_to_l_@exp1,f
  6624  1376  1D03               	btfss	3,2
  6625  1377  2B79               	goto	u4611
  6626  1378  2B7A               	goto	u4610
  6627  1379                     u4611:	
  6628  1379  2B69               	goto	l2775
  6629  137A                     u4610:	
  6630  137A  2B92               	goto	l2785
  6631  137B                     l2777:	
  6632  137B  3020               	movlw	32
  6633  137C  0225               	subwf	__div_to_l_@exp1,w
  6634  137D  1C03               	skipc
  6635  137E  2B80               	goto	u4621
  6636  137F  2B81               	goto	u4620
  6637  1380                     u4621:	
  6638  1380  2B8D               	goto	l444
  6639  1381                     u4620:	
  6640  1381  2AEA               	goto	l2739
  6641  1382                     l2783:	
  6642  1382  3001               	movlw	1
  6643  1383  00F8               	movwf	??__div_to_l_
  6644  1384                     u4635:	
  6645  1384  1003               	clrc
  6646  1385  0DA0               	rlf	__div_to_l_@quot,f
  6647  1386  0DA1               	rlf	__div_to_l_@quot+1,f
  6648  1387  0DA2               	rlf	__div_to_l_@quot+2,f
  6649  1388  0DA3               	rlf	__div_to_l_@quot+3,f
  6650  1389  0BF8               	decfsz	??__div_to_l_,f
  6651  138A  2B84               	goto	u4635
  6652  138B  3001               	movlw	1
  6653  138C  02A5               	subwf	__div_to_l_@exp1,f
  6654  138D                     l444:	
  6655  138D  0825               	movf	__div_to_l_@exp1,w
  6656  138E  1D03               	btfss	3,2
  6657  138F  2B91               	goto	u4641
  6658  1390  2B92               	goto	u4640
  6659  1391                     u4641:	
  6660  1391  2B82               	goto	l2783
  6661  1392                     u4640:	
  6662  1392                     l2785:	
  6663  1392  0823               	movf	__div_to_l_@quot+3,w
  6664  1393  00F3               	movwf	?__div_to_l_+3
  6665  1394  0822               	movf	__div_to_l_@quot+2,w
  6666  1395  00F2               	movwf	?__div_to_l_+2
  6667  1396  0821               	movf	__div_to_l_@quot+1,w
  6668  1397  00F1               	movwf	?__div_to_l_+1
  6669  1398  0820               	movf	__div_to_l_@quot,w
  6670  1399  00F0               	movwf	?__div_to_l_
  6671  139A                     l433:	
  6672  139A  0008               	return
  6673  139B                     __end_of__div_to_l_:	
  6674                           
  6675                           	psect	text14
  6676  1164                     __ptext14:	
  6677 ;; *************** function ___xxtofl *****************
  6678 ;; Defined at:
  6679 ;;		line 10 in file "C:\Program Files (x86)\Microchip\xc8\v2.10\pic\sources\c90\common\xxtofl.c"
  6680 ;; Parameters:    Size  Location     Type
  6681 ;;  sign            1    wreg     unsigned char 
  6682 ;;  val             4    6[COMMON] long 
  6683 ;; Auto vars:     Size  Location     Type
  6684 ;;  sign            1    0[BANK0 ] unsigned char 
  6685 ;;  arg             4    2[BANK0 ] unsigned long 
  6686 ;;  exp             1    1[BANK0 ] unsigned char 
  6687 ;; Return value:  Size  Location     Type
  6688 ;;                  4    6[COMMON] unsigned char 
  6689 ;; Registers used:
  6690 ;;		wreg, status,2, status,0
  6691 ;; Tracked objects:
  6692 ;;		On entry : 0/0
  6693 ;;		On exit  : 0/0
  6694 ;;		Unchanged: 0/0
  6695 ;; Data sizes:     COMMON   BANK0   BANK1   BANK3   BANK2
  6696 ;;      Params:         4       0       0       0       0
  6697 ;;      Locals:         0       6       0       0       0
  6698 ;;      Temps:          4       0       0       0       0
  6699 ;;      Totals:         8       6       0       0       0
  6700 ;;Total ram usage:       14 bytes
  6701 ;; Hardware stack levels used:    1
  6702 ;; This function calls:
  6703 ;;		Nothing
  6704 ;; This function is called by:
  6705 ;;		_ADC_Read
  6706 ;;		_sprintf
  6707 ;; This function uses a non-reentrant model
  6708 ;;
  6709                           
  6710                           
  6711                           ;psect for function ___xxtofl
  6712  1164                     ___xxtofl:	
  6713                           
  6714                           ;incstack = 0
  6715                           ; Regs used in ___xxtofl: [wreg+status,2+status,0]
  6716                           ;___xxtofl@sign stored from wreg
  6717  1164  1283               	bcf	3,5	;RP0=0, select bank0
  6718  1165  1303               	bcf	3,6	;RP1=0, select bank0
  6719  1166  00A0               	movwf	___xxtofl@sign
  6720  1167                     l2929:	
  6721  1167  0820               	movf	___xxtofl@sign,w
  6722  1168  1903               	btfsc	3,2
  6723  1169  296B               	goto	u5031
  6724  116A  296C               	goto	u5030
  6725  116B                     u5031:	
  6726  116B  2980               	goto	l2935
  6727  116C                     u5030:	
  6728  116C                     l2931:	
  6729  116C  1FF9               	btfss	___xxtofl@val+3,7
  6730  116D  296F               	goto	u5041
  6731  116E  2970               	goto	u5040
  6732  116F                     u5041:	
  6733  116F  2980               	goto	l2935
  6734  1170                     u5040:	
  6735  1170                     l2933:	
  6736  1170  0976               	comf	___xxtofl@val,w
  6737  1171  00A2               	movwf	___xxtofl@arg
  6738  1172  0977               	comf	___xxtofl@val+1,w
  6739  1173  00A3               	movwf	___xxtofl@arg+1
  6740  1174  0978               	comf	___xxtofl@val+2,w
  6741  1175  00A4               	movwf	___xxtofl@arg+2
  6742  1176  0979               	comf	___xxtofl@val+3,w
  6743  1177  00A5               	movwf	___xxtofl@arg+3
  6744  1178  0AA2               	incf	___xxtofl@arg,f
  6745  1179  1903               	skipnz
  6746  117A  0AA3               	incf	___xxtofl@arg+1,f
  6747  117B  1903               	skipnz
  6748  117C  0AA4               	incf	___xxtofl@arg+2,f
  6749  117D  1903               	skipnz
  6750  117E  0AA5               	incf	___xxtofl@arg+3,f
  6751  117F  2988               	goto	l724
  6752  1180                     l2935:	
  6753  1180  0879               	movf	___xxtofl@val+3,w
  6754  1181  00A5               	movwf	___xxtofl@arg+3
  6755  1182  0878               	movf	___xxtofl@val+2,w
  6756  1183  00A4               	movwf	___xxtofl@arg+2
  6757  1184  0877               	movf	___xxtofl@val+1,w
  6758  1185  00A3               	movwf	___xxtofl@arg+1
  6759  1186  0876               	movf	___xxtofl@val,w
  6760  1187  00A2               	movwf	___xxtofl@arg
  6761  1188                     l724:	
  6762  1188  0879               	movf	___xxtofl@val+3,w
  6763  1189  0478               	iorwf	___xxtofl@val+2,w
  6764  118A  0477               	iorwf	___xxtofl@val+1,w
  6765  118B  0476               	iorwf	___xxtofl@val,w
  6766  118C  1D03               	skipz
  6767  118D  298F               	goto	u5051
  6768  118E  2990               	goto	u5050
  6769  118F                     u5051:	
  6770  118F  2999               	goto	l2941
  6771  1190                     u5050:	
  6772  1190                     l2937:	
  6773  1190  3000               	movlw	0
  6774  1191  00F9               	movwf	?___xxtofl+3
  6775  1192  3000               	movlw	0
  6776  1193  00F8               	movwf	?___xxtofl+2
  6777  1194  3000               	movlw	0
  6778  1195  00F7               	movwf	?___xxtofl+1
  6779  1196  3000               	movlw	0
  6780  1197  00F6               	movwf	?___xxtofl
  6781  1198  2A1F               	goto	l726
  6782  1199                     l2941:	
  6783  1199  3096               	movlw	150
  6784  119A  00FA               	movwf	??___xxtofl
  6785  119B  087A               	movf	??___xxtofl,w
  6786  119C  00A1               	movwf	___xxtofl@exp
  6787  119D  29AB               	goto	l2945
  6788  119E                     l2943:	
  6789  119E  3001               	movlw	1
  6790  119F  00FA               	movwf	??___xxtofl
  6791  11A0  087A               	movf	??___xxtofl,w
  6792  11A1  07A1               	addwf	___xxtofl@exp,f
  6793  11A2  3001               	movlw	1
  6794  11A3                     u5065:	
  6795  11A3  1003               	clrc
  6796  11A4  0CA5               	rrf	___xxtofl@arg+3,f
  6797  11A5  0CA4               	rrf	___xxtofl@arg+2,f
  6798  11A6  0CA3               	rrf	___xxtofl@arg+1,f
  6799  11A7  0CA2               	rrf	___xxtofl@arg,f
  6800  11A8  3EFF               	addlw	-1
  6801  11A9  1D03               	skipz
  6802  11AA  29A3               	goto	u5065
  6803  11AB                     l2945:	
  6804  11AB  30FE               	movlw	254
  6805  11AC  0525               	andwf	___xxtofl@arg+3,w
  6806  11AD  1D03               	btfss	3,2
  6807  11AE  29B0               	goto	u5071
  6808  11AF  29B1               	goto	u5070
  6809  11B0                     u5071:	
  6810  11B0  299E               	goto	l2943
  6811  11B1                     u5070:	
  6812  11B1  29CD               	goto	l730
  6813  11B2                     l2947:	
  6814  11B2  3001               	movlw	1
  6815  11B3  00FA               	movwf	??___xxtofl
  6816  11B4  087A               	movf	??___xxtofl,w
  6817  11B5  07A1               	addwf	___xxtofl@exp,f
  6818  11B6                     l2949:	
  6819  11B6  3001               	movlw	1
  6820  11B7  07A2               	addwf	___xxtofl@arg,f
  6821  11B8  3000               	movlw	0
  6822  11B9  1803               	skipnc
  6823  11BA  3001               	movlw	1
  6824  11BB  07A3               	addwf	___xxtofl@arg+1,f
  6825  11BC  3000               	movlw	0
  6826  11BD  1803               	skipnc
  6827  11BE  3001               	movlw	1
  6828  11BF  07A4               	addwf	___xxtofl@arg+2,f
  6829  11C0  3000               	movlw	0
  6830  11C1  1803               	skipnc
  6831  11C2  3001               	movlw	1
  6832  11C3  07A5               	addwf	___xxtofl@arg+3,f
  6833  11C4                     l2951:	
  6834  11C4  3001               	movlw	1
  6835  11C5                     u5085:	
  6836  11C5  1003               	clrc
  6837  11C6  0CA5               	rrf	___xxtofl@arg+3,f
  6838  11C7  0CA4               	rrf	___xxtofl@arg+2,f
  6839  11C8  0CA3               	rrf	___xxtofl@arg+1,f
  6840  11C9  0CA2               	rrf	___xxtofl@arg,f
  6841  11CA  3EFF               	addlw	-1
  6842  11CB  1D03               	skipz
  6843  11CC  29C5               	goto	u5085
  6844  11CD                     l730:	
  6845  11CD  30FF               	movlw	255
  6846  11CE  0525               	andwf	___xxtofl@arg+3,w
  6847  11CF  1D03               	btfss	3,2
  6848  11D0  29D2               	goto	u5091
  6849  11D1  29D3               	goto	u5090
  6850  11D2                     u5091:	
  6851  11D2  29B2               	goto	l2947
  6852  11D3                     u5090:	
  6853  11D3  29DF               	goto	l2955
  6854  11D4                     l2953:	
  6855  11D4  3001               	movlw	1
  6856  11D5  02A1               	subwf	___xxtofl@exp,f
  6857  11D6  3001               	movlw	1
  6858  11D7  00FA               	movwf	??___xxtofl
  6859  11D8                     u5105:	
  6860  11D8  1003               	clrc
  6861  11D9  0DA2               	rlf	___xxtofl@arg,f
  6862  11DA  0DA3               	rlf	___xxtofl@arg+1,f
  6863  11DB  0DA4               	rlf	___xxtofl@arg+2,f
  6864  11DC  0DA5               	rlf	___xxtofl@arg+3,f
  6865  11DD  0BFA               	decfsz	??___xxtofl,f
  6866  11DE  29D8               	goto	u5105
  6867  11DF                     l2955:	
  6868  11DF  1BA4               	btfsc	___xxtofl@arg+2,7
  6869  11E0  29E2               	goto	u5111
  6870  11E1  29E3               	goto	u5110
  6871  11E2                     u5111:	
  6872  11E2  29E9               	goto	l737
  6873  11E3                     u5110:	
  6874  11E3                     l2957:	
  6875  11E3  3002               	movlw	2
  6876  11E4  0221               	subwf	___xxtofl@exp,w
  6877  11E5  1803               	skipnc
  6878  11E6  29E8               	goto	u5121
  6879  11E7  29E9               	goto	u5120
  6880  11E8                     u5121:	
  6881  11E8  29D4               	goto	l2953
  6882  11E9                     u5120:	
  6883  11E9                     l737:	
  6884  11E9  1821               	btfsc	___xxtofl@exp,0
  6885  11EA  29EC               	goto	u5131
  6886  11EB  29ED               	goto	u5130
  6887  11EC                     u5131:	
  6888  11EC  29F5               	goto	l738
  6889  11ED                     u5130:	
  6890  11ED                     l2959:	
  6891  11ED  30FF               	movlw	255
  6892  11EE  05A2               	andwf	___xxtofl@arg,f
  6893  11EF  30FF               	movlw	255
  6894  11F0  05A3               	andwf	___xxtofl@arg+1,f
  6895  11F1  307F               	movlw	127
  6896  11F2  05A4               	andwf	___xxtofl@arg+2,f
  6897  11F3  30FF               	movlw	255
  6898  11F4  05A5               	andwf	___xxtofl@arg+3,f
  6899  11F5                     l738:	
  6900  11F5  1003               	clrc
  6901  11F6  0CA1               	rrf	___xxtofl@exp,f
  6902  11F7                     l2961:	
  6903  11F7  0821               	movf	___xxtofl@exp,w
  6904  11F8  00FA               	movwf	??___xxtofl
  6905  11F9  01FB               	clrf	??___xxtofl+1
  6906  11FA  01FC               	clrf	??___xxtofl+2
  6907  11FB  01FD               	clrf	??___xxtofl+3
  6908  11FC  3018               	movlw	24
  6909  11FD                     u5145:	
  6910  11FD  1003               	clrc
  6911  11FE  0DFA               	rlf	??___xxtofl,f
  6912  11FF  0DFB               	rlf	??___xxtofl+1,f
  6913  1200  0DFC               	rlf	??___xxtofl+2,f
  6914  1201  0DFD               	rlf	??___xxtofl+3,f
  6915  1202                     u5140:	
  6916  1202  3EFF               	addlw	-1
  6917  1203  1D03               	skipz
  6918  1204  29FD               	goto	u5145
  6919  1205  087A               	movf	??___xxtofl,w
  6920  1206  04A2               	iorwf	___xxtofl@arg,f
  6921  1207  087B               	movf	??___xxtofl+1,w
  6922  1208  04A3               	iorwf	___xxtofl@arg+1,f
  6923  1209  087C               	movf	??___xxtofl+2,w
  6924  120A  04A4               	iorwf	___xxtofl@arg+2,f
  6925  120B  087D               	movf	??___xxtofl+3,w
  6926  120C  04A5               	iorwf	___xxtofl@arg+3,f
  6927  120D                     l2963:	
  6928  120D  0820               	movf	___xxtofl@sign,w
  6929  120E  1903               	btfsc	3,2
  6930  120F  2A11               	goto	u5151
  6931  1210  2A12               	goto	u5150
  6932  1211                     u5151:	
  6933  1211  2A17               	goto	l2969
  6934  1212                     u5150:	
  6935  1212                     l2965:	
  6936  1212  1FF9               	btfss	___xxtofl@val+3,7
  6937  1213  2A15               	goto	u5161
  6938  1214  2A16               	goto	u5160
  6939  1215                     u5161:	
  6940  1215  2A17               	goto	l2969
  6941  1216                     u5160:	
  6942  1216                     l2967:	
  6943  1216  17A5               	bsf	___xxtofl@arg+3,7
  6944  1217                     l2969:	
  6945  1217  0825               	movf	___xxtofl@arg+3,w
  6946  1218  00F9               	movwf	?___xxtofl+3
  6947  1219  0824               	movf	___xxtofl@arg+2,w
  6948  121A  00F8               	movwf	?___xxtofl+2
  6949  121B  0823               	movf	___xxtofl@arg+1,w
  6950  121C  00F7               	movwf	?___xxtofl+1
  6951  121D  0822               	movf	___xxtofl@arg,w
  6952  121E  00F6               	movwf	?___xxtofl
  6953  121F                     l726:	
  6954  121F  0008               	return
  6955  1220                     __end_of___xxtofl:	
  6956                           
  6957                           	psect	text15
  6958  1C1F                     __ptext15:	
  6959 ;; *************** function ___wmul *****************
  6960 ;; Defined at:
  6961 ;;		line 15 in file "C:\Program Files (x86)\Microchip\xc8\v2.10\pic\sources\c90\common\Umul16.c"
  6962 ;; Parameters:    Size  Location     Type
  6963 ;;  multiplier      2    0[COMMON] unsigned int 
  6964 ;;  multiplicand    2    2[COMMON] unsigned int 
  6965 ;; Auto vars:     Size  Location     Type
  6966 ;;  product         2    4[COMMON] unsigned int 
  6967 ;; Return value:  Size  Location     Type
  6968 ;;                  2    0[COMMON] unsigned int 
  6969 ;; Registers used:
  6970 ;;		wreg, status,2, status,0
  6971 ;; Tracked objects:
  6972 ;;		On entry : 0/0
  6973 ;;		On exit  : 0/0
  6974 ;;		Unchanged: 0/0
  6975 ;; Data sizes:     COMMON   BANK0   BANK1   BANK3   BANK2
  6976 ;;      Params:         4       0       0       0       0
  6977 ;;      Locals:         2       0       0       0       0
  6978 ;;      Temps:          0       0       0       0       0
  6979 ;;      Totals:         6       0       0       0       0
  6980 ;;Total ram usage:        6 bytes
  6981 ;; Hardware stack levels used:    1
  6982 ;; This function calls:
  6983 ;;		Nothing
  6984 ;; This function is called by:
  6985 ;;		_ADC_Read
  6986 ;;		_sprintf
  6987 ;; This function uses a non-reentrant model
  6988 ;;
  6989                           
  6990                           
  6991                           ;psect for function ___wmul
  6992  1C1F                     ___wmul:	
  6993  1C1F                     l2789:	
  6994                           ;incstack = 0
  6995                           ; Regs used in ___wmul: [wreg+status,2+status,0]
  6996                           
  6997  1C1F  01F4               	clrf	___wmul@product
  6998  1C20  01F5               	clrf	___wmul@product+1
  6999  1C21                     l2791:	
  7000  1C21  1C70               	btfss	___wmul@multiplier,0
  7001  1C22  2C24               	goto	u4651
  7002  1C23  2C25               	goto	u4650
  7003  1C24                     u4651:	
  7004  1C24  2C2B               	goto	l263
  7005  1C25                     u4650:	
  7006  1C25                     l2793:	
  7007  1C25  0872               	movf	___wmul@multiplicand,w
  7008  1C26  07F4               	addwf	___wmul@product,f
  7009  1C27  1803               	skipnc
  7010  1C28  0AF5               	incf	___wmul@product+1,f
  7011  1C29  0873               	movf	___wmul@multiplicand+1,w
  7012  1C2A  07F5               	addwf	___wmul@product+1,f
  7013  1C2B                     l263:	
  7014  1C2B  3001               	movlw	1
  7015  1C2C                     u4665:	
  7016  1C2C  1003               	clrc
  7017  1C2D  0DF2               	rlf	___wmul@multiplicand,f
  7018  1C2E  0DF3               	rlf	___wmul@multiplicand+1,f
  7019  1C2F  3EFF               	addlw	-1
  7020  1C30  1D03               	skipz
  7021  1C31  2C2C               	goto	u4665
  7022  1C32                     l2795:	
  7023  1C32  3001               	movlw	1
  7024  1C33                     u4675:	
  7025  1C33  1003               	clrc
  7026  1C34  0CF1               	rrf	___wmul@multiplier+1,f
  7027  1C35  0CF0               	rrf	___wmul@multiplier,f
  7028  1C36  3EFF               	addlw	-1
  7029  1C37  1D03               	skipz
  7030  1C38  2C33               	goto	u4675
  7031  1C39                     l2797:	
  7032  1C39  0870               	movf	___wmul@multiplier,w
  7033  1C3A  0471               	iorwf	___wmul@multiplier+1,w
  7034  1C3B  1D03               	btfss	3,2
  7035  1C3C  2C3E               	goto	u4681
  7036  1C3D  2C3F               	goto	u4680
  7037  1C3E                     u4681:	
  7038  1C3E  2C21               	goto	l2791
  7039  1C3F                     u4680:	
  7040  1C3F                     l2799:	
  7041  1C3F  0875               	movf	___wmul@product+1,w
  7042  1C40  00F1               	movwf	?___wmul+1
  7043  1C41  0874               	movf	___wmul@product,w
  7044  1C42  00F0               	movwf	?___wmul
  7045  1C43                     l265:	
  7046  1C43  0008               	return
  7047  1C44                     __end_of___wmul:	
  7048                           
  7049                           	psect	text16
  7050  1E08                     __ptext16:	
  7051 ;; *************** function ___llmod *****************
  7052 ;; Defined at:
  7053 ;;		line 5 in file "C:\Program Files (x86)\Microchip\xc8\v2.10\pic\sources\c90\common\llmod.c"
  7054 ;; Parameters:    Size  Location     Type
  7055 ;;  divisor         4    0[COMMON] unsigned long 
  7056 ;;  dividend        4    4[COMMON] unsigned long 
  7057 ;; Auto vars:     Size  Location     Type
  7058 ;;  counter         1    9[COMMON] unsigned char 
  7059 ;; Return value:  Size  Location     Type
  7060 ;;                  4    0[COMMON] unsigned long 
  7061 ;; Registers used:
  7062 ;;		wreg, status,2, status,0
  7063 ;; Tracked objects:
  7064 ;;		On entry : 0/0
  7065 ;;		On exit  : 0/0
  7066 ;;		Unchanged: 0/0
  7067 ;; Data sizes:     COMMON   BANK0   BANK1   BANK3   BANK2
  7068 ;;      Params:         8       0       0       0       0
  7069 ;;      Locals:         1       0       0       0       0
  7070 ;;      Temps:          1       0       0       0       0
  7071 ;;      Totals:        10       0       0       0       0
  7072 ;;Total ram usage:       10 bytes
  7073 ;; Hardware stack levels used:    1
  7074 ;; This function calls:
  7075 ;;		Nothing
  7076 ;; This function is called by:
  7077 ;;		_sprintf
  7078 ;; This function uses a non-reentrant model
  7079 ;;
  7080                           
  7081                           
  7082                           ;psect for function ___llmod
  7083  1E08                     ___llmod:	
  7084  1E08                     l2903:	
  7085                           ;incstack = 0
  7086                           ; Regs used in ___llmod: [wreg+status,2+status,0]
  7087                           
  7088  1E08  0873               	movf	___llmod@divisor+3,w
  7089  1E09  0472               	iorwf	___llmod@divisor+2,w
  7090  1E0A  0471               	iorwf	___llmod@divisor+1,w
  7091  1E0B  0470               	iorwf	___llmod@divisor,w
  7092  1E0C  1903               	skipnz
  7093  1E0D  2E0F               	goto	u4971
  7094  1E0E  2E10               	goto	u4970
  7095  1E0F                     u4971:	
  7096  1E0F  2E53               	goto	l2919
  7097  1E10                     u4970:	
  7098  1E10                     l2905:	
  7099  1E10  01F9               	clrf	___llmod@counter
  7100  1E11  0AF9               	incf	___llmod@counter,f
  7101  1E12  2E20               	goto	l2909
  7102  1E13                     l2907:	
  7103  1E13  3001               	movlw	1
  7104  1E14  00F8               	movwf	??___llmod
  7105  1E15                     u4985:	
  7106  1E15  1003               	clrc
  7107  1E16  0DF0               	rlf	___llmod@divisor,f
  7108  1E17  0DF1               	rlf	___llmod@divisor+1,f
  7109  1E18  0DF2               	rlf	___llmod@divisor+2,f
  7110  1E19  0DF3               	rlf	___llmod@divisor+3,f
  7111  1E1A  0BF8               	decfsz	??___llmod,f
  7112  1E1B  2E15               	goto	u4985
  7113  1E1C  3001               	movlw	1
  7114  1E1D  00F8               	movwf	??___llmod
  7115  1E1E  0878               	movf	??___llmod,w
  7116  1E1F  07F9               	addwf	___llmod@counter,f
  7117  1E20                     l2909:	
  7118  1E20  1FF3               	btfss	___llmod@divisor+3,7
  7119  1E21  2E23               	goto	u4991
  7120  1E22  2E24               	goto	u4990
  7121  1E23                     u4991:	
  7122  1E23  2E13               	goto	l2907
  7123  1E24                     u4990:	
  7124  1E24                     l2911:	
  7125  1E24  0873               	movf	___llmod@divisor+3,w
  7126  1E25  0277               	subwf	___llmod@dividend+3,w
  7127  1E26  1D03               	skipz
  7128  1E27  2E32               	goto	u5005
  7129  1E28  0872               	movf	___llmod@divisor+2,w
  7130  1E29  0276               	subwf	___llmod@dividend+2,w
  7131  1E2A  1D03               	skipz
  7132  1E2B  2E32               	goto	u5005
  7133  1E2C  0871               	movf	___llmod@divisor+1,w
  7134  1E2D  0275               	subwf	___llmod@dividend+1,w
  7135  1E2E  1D03               	skipz
  7136  1E2F  2E32               	goto	u5005
  7137  1E30  0870               	movf	___llmod@divisor,w
  7138  1E31  0274               	subwf	___llmod@dividend,w
  7139  1E32                     u5005:	
  7140  1E32  1C03               	skipc
  7141  1E33  2E35               	goto	u5001
  7142  1E34  2E36               	goto	u5000
  7143  1E35                     u5001:	
  7144  1E35  2E44               	goto	l2915
  7145  1E36                     u5000:	
  7146  1E36                     l2913:	
  7147  1E36  0870               	movf	___llmod@divisor,w
  7148  1E37  02F4               	subwf	___llmod@dividend,f
  7149  1E38  0871               	movf	___llmod@divisor+1,w
  7150  1E39  1C03               	skipc
  7151  1E3A  0F71               	incfsz	___llmod@divisor+1,w
  7152  1E3B  02F5               	subwf	___llmod@dividend+1,f
  7153  1E3C  0872               	movf	___llmod@divisor+2,w
  7154  1E3D  1C03               	skipc
  7155  1E3E  0F72               	incfsz	___llmod@divisor+2,w
  7156  1E3F  02F6               	subwf	___llmod@dividend+2,f
  7157  1E40  0873               	movf	___llmod@divisor+3,w
  7158  1E41  1C03               	skipc
  7159  1E42  0F73               	incfsz	___llmod@divisor+3,w
  7160  1E43  02F7               	subwf	___llmod@dividend+3,f
  7161  1E44                     l2915:	
  7162  1E44  3001               	movlw	1
  7163  1E45                     u5015:	
  7164  1E45  1003               	clrc
  7165  1E46  0CF3               	rrf	___llmod@divisor+3,f
  7166  1E47  0CF2               	rrf	___llmod@divisor+2,f
  7167  1E48  0CF1               	rrf	___llmod@divisor+1,f
  7168  1E49  0CF0               	rrf	___llmod@divisor,f
  7169  1E4A  3EFF               	addlw	-1
  7170  1E4B  1D03               	skipz
  7171  1E4C  2E45               	goto	u5015
  7172  1E4D                     l2917:	
  7173  1E4D  3001               	movlw	1
  7174  1E4E  02F9               	subwf	___llmod@counter,f
  7175  1E4F  1D03               	btfss	3,2
  7176  1E50  2E52               	goto	u5021
  7177  1E51  2E53               	goto	u5020
  7178  1E52                     u5021:	
  7179  1E52  2E24               	goto	l2911
  7180  1E53                     u5020:	
  7181  1E53                     l2919:	
  7182  1E53  0877               	movf	___llmod@dividend+3,w
  7183  1E54  00F3               	movwf	?___llmod+3
  7184  1E55  0876               	movf	___llmod@dividend+2,w
  7185  1E56  00F2               	movwf	?___llmod+2
  7186  1E57  0875               	movf	___llmod@dividend+1,w
  7187  1E58  00F1               	movwf	?___llmod+1
  7188  1E59  0874               	movf	___llmod@dividend,w
  7189  1E5A  00F0               	movwf	?___llmod
  7190  1E5B                     l519:	
  7191  1E5B  0008               	return
  7192  1E5C                     __end_of___llmod:	
  7193                           
  7194                           	psect	text17
  7195  1EB5                     __ptext17:	
  7196 ;; *************** function ___lldiv *****************
  7197 ;; Defined at:
  7198 ;;		line 5 in file "C:\Program Files (x86)\Microchip\xc8\v2.10\pic\sources\c90\common\__lldiv.c"
  7199 ;; Parameters:    Size  Location     Type
  7200 ;;  divisor         4    0[COMMON] unsigned long 
  7201 ;;  dividend        4    4[COMMON] unsigned long 
  7202 ;; Auto vars:     Size  Location     Type
  7203 ;;  quotient        4    9[COMMON] unsigned long 
  7204 ;;  counter         1   13[COMMON] unsigned char 
  7205 ;; Return value:  Size  Location     Type
  7206 ;;                  4    0[COMMON] unsigned long 
  7207 ;; Registers used:
  7208 ;;		wreg, status,2, status,0
  7209 ;; Tracked objects:
  7210 ;;		On entry : 0/0
  7211 ;;		On exit  : 0/0
  7212 ;;		Unchanged: 0/0
  7213 ;; Data sizes:     COMMON   BANK0   BANK1   BANK3   BANK2
  7214 ;;      Params:         8       0       0       0       0
  7215 ;;      Locals:         5       0       0       0       0
  7216 ;;      Temps:          1       0       0       0       0
  7217 ;;      Totals:        14       0       0       0       0
  7218 ;;Total ram usage:       14 bytes
  7219 ;; Hardware stack levels used:    1
  7220 ;; This function calls:
  7221 ;;		Nothing
  7222 ;; This function is called by:
  7223 ;;		_sprintf
  7224 ;; This function uses a non-reentrant model
  7225 ;;
  7226                           
  7227                           
  7228                           ;psect for function ___lldiv
  7229  1EB5                     ___lldiv:	
  7230  1EB5                     l2803:	
  7231                           ;incstack = 0
  7232                           ; Regs used in ___lldiv: [wreg+status,2+status,0]
  7233                           
  7234  1EB5  3000               	movlw	0
  7235  1EB6  00FC               	movwf	___lldiv@quotient+3
  7236  1EB7  3000               	movlw	0
  7237  1EB8  00FB               	movwf	___lldiv@quotient+2
  7238  1EB9  3000               	movlw	0
  7239  1EBA  00FA               	movwf	___lldiv@quotient+1
  7240  1EBB  3000               	movlw	0
  7241  1EBC  00F9               	movwf	___lldiv@quotient
  7242  1EBD  0873               	movf	___lldiv@divisor+3,w
  7243  1EBE  0472               	iorwf	___lldiv@divisor+2,w
  7244  1EBF  0471               	iorwf	___lldiv@divisor+1,w
  7245  1EC0  0470               	iorwf	___lldiv@divisor,w
  7246  1EC1  1903               	skipnz
  7247  1EC2  2EC4               	goto	u4691
  7248  1EC3  2EC5               	goto	u4690
  7249  1EC4                     u4691:	
  7250  1EC4  2F12               	goto	l2823
  7251  1EC5                     u4690:	
  7252  1EC5                     l2805:	
  7253  1EC5  01FD               	clrf	___lldiv@counter
  7254  1EC6  0AFD               	incf	___lldiv@counter,f
  7255  1EC7  2ED5               	goto	l2809
  7256  1EC8                     l2807:	
  7257  1EC8  3001               	movlw	1
  7258  1EC9  00F8               	movwf	??___lldiv
  7259  1ECA                     u4705:	
  7260  1ECA  1003               	clrc
  7261  1ECB  0DF0               	rlf	___lldiv@divisor,f
  7262  1ECC  0DF1               	rlf	___lldiv@divisor+1,f
  7263  1ECD  0DF2               	rlf	___lldiv@divisor+2,f
  7264  1ECE  0DF3               	rlf	___lldiv@divisor+3,f
  7265  1ECF  0BF8               	decfsz	??___lldiv,f
  7266  1ED0  2ECA               	goto	u4705
  7267  1ED1  3001               	movlw	1
  7268  1ED2  00F8               	movwf	??___lldiv
  7269  1ED3  0878               	movf	??___lldiv,w
  7270  1ED4  07FD               	addwf	___lldiv@counter,f
  7271  1ED5                     l2809:	
  7272  1ED5  1FF3               	btfss	___lldiv@divisor+3,7
  7273  1ED6  2ED8               	goto	u4711
  7274  1ED7  2ED9               	goto	u4710
  7275  1ED8                     u4711:	
  7276  1ED8  2EC8               	goto	l2807
  7277  1ED9                     u4710:	
  7278  1ED9                     l2811:	
  7279  1ED9  3001               	movlw	1
  7280  1EDA  00F8               	movwf	??___lldiv
  7281  1EDB                     u4725:	
  7282  1EDB  1003               	clrc
  7283  1EDC  0DF9               	rlf	___lldiv@quotient,f
  7284  1EDD  0DFA               	rlf	___lldiv@quotient+1,f
  7285  1EDE  0DFB               	rlf	___lldiv@quotient+2,f
  7286  1EDF  0DFC               	rlf	___lldiv@quotient+3,f
  7287  1EE0  0BF8               	decfsz	??___lldiv,f
  7288  1EE1  2EDB               	goto	u4725
  7289  1EE2                     l2813:	
  7290  1EE2  0873               	movf	___lldiv@divisor+3,w
  7291  1EE3  0277               	subwf	___lldiv@dividend+3,w
  7292  1EE4  1D03               	skipz
  7293  1EE5  2EF0               	goto	u4735
  7294  1EE6  0872               	movf	___lldiv@divisor+2,w
  7295  1EE7  0276               	subwf	___lldiv@dividend+2,w
  7296  1EE8  1D03               	skipz
  7297  1EE9  2EF0               	goto	u4735
  7298  1EEA  0871               	movf	___lldiv@divisor+1,w
  7299  1EEB  0275               	subwf	___lldiv@dividend+1,w
  7300  1EEC  1D03               	skipz
  7301  1EED  2EF0               	goto	u4735
  7302  1EEE  0870               	movf	___lldiv@divisor,w
  7303  1EEF  0274               	subwf	___lldiv@dividend,w
  7304  1EF0                     u4735:	
  7305  1EF0  1C03               	skipc
  7306  1EF1  2EF3               	goto	u4731
  7307  1EF2  2EF4               	goto	u4730
  7308  1EF3                     u4731:	
  7309  1EF3  2F03               	goto	l2819
  7310  1EF4                     u4730:	
  7311  1EF4                     l2815:	
  7312  1EF4  0870               	movf	___lldiv@divisor,w
  7313  1EF5  02F4               	subwf	___lldiv@dividend,f
  7314  1EF6  0871               	movf	___lldiv@divisor+1,w
  7315  1EF7  1C03               	skipc
  7316  1EF8  0F71               	incfsz	___lldiv@divisor+1,w
  7317  1EF9  02F5               	subwf	___lldiv@dividend+1,f
  7318  1EFA  0872               	movf	___lldiv@divisor+2,w
  7319  1EFB  1C03               	skipc
  7320  1EFC  0F72               	incfsz	___lldiv@divisor+2,w
  7321  1EFD  02F6               	subwf	___lldiv@dividend+2,f
  7322  1EFE  0873               	movf	___lldiv@divisor+3,w
  7323  1EFF  1C03               	skipc
  7324  1F00  0F73               	incfsz	___lldiv@divisor+3,w
  7325  1F01  02F7               	subwf	___lldiv@dividend+3,f
  7326  1F02                     l2817:	
  7327  1F02  1479               	bsf	___lldiv@quotient,0
  7328  1F03                     l2819:	
  7329  1F03  3001               	movlw	1
  7330  1F04                     u4745:	
  7331  1F04  1003               	clrc
  7332  1F05  0CF3               	rrf	___lldiv@divisor+3,f
  7333  1F06  0CF2               	rrf	___lldiv@divisor+2,f
  7334  1F07  0CF1               	rrf	___lldiv@divisor+1,f
  7335  1F08  0CF0               	rrf	___lldiv@divisor,f
  7336  1F09  3EFF               	addlw	-1
  7337  1F0A  1D03               	skipz
  7338  1F0B  2F04               	goto	u4745
  7339  1F0C                     l2821:	
  7340  1F0C  3001               	movlw	1
  7341  1F0D  02FD               	subwf	___lldiv@counter,f
  7342  1F0E  1D03               	btfss	3,2
  7343  1F0F  2F11               	goto	u4751
  7344  1F10  2F12               	goto	u4750
  7345  1F11                     u4751:	
  7346  1F11  2ED9               	goto	l2811
  7347  1F12                     u4750:	
  7348  1F12                     l2823:	
  7349  1F12  087C               	movf	___lldiv@quotient+3,w
  7350  1F13  00F3               	movwf	?___lldiv+3
  7351  1F14  087B               	movf	___lldiv@quotient+2,w
  7352  1F15  00F2               	movwf	?___lldiv+2
  7353  1F16  087A               	movf	___lldiv@quotient+1,w
  7354  1F17  00F1               	movwf	?___lldiv+1
  7355  1F18  0879               	movf	___lldiv@quotient,w
  7356  1F19  00F0               	movwf	?___lldiv
  7357  1F1A                     l299:	
  7358  1F1A  0008               	return
  7359  1F1B                     __end_of___lldiv:	
  7360                           
  7361                           	psect	text18
  7362  1F84                     __ptext18:	
  7363 ;; *************** function ___fltol *****************
  7364 ;; Defined at:
  7365 ;;		line 43 in file "C:\Program Files (x86)\Microchip\xc8\v2.10\pic\sources\c90\common\fltol.c"
  7366 ;; Parameters:    Size  Location     Type
  7367 ;;  f1              4   49[BANK0 ] unsigned long 
  7368 ;; Auto vars:     Size  Location     Type
  7369 ;;  exp1            1   59[BANK0 ] unsigned char 
  7370 ;;  sign1           1   58[BANK0 ] unsigned char 
  7371 ;; Return value:  Size  Location     Type
  7372 ;;                  4   49[BANK0 ] long 
  7373 ;; Registers used:
  7374 ;;		wreg, status,2, status,0
  7375 ;; Tracked objects:
  7376 ;;		On entry : 0/0
  7377 ;;		On exit  : 0/0
  7378 ;;		Unchanged: 0/0
  7379 ;; Data sizes:     COMMON   BANK0   BANK1   BANK3   BANK2
  7380 ;;      Params:         0       4       0       0       0
  7381 ;;      Locals:         0       2       0       0       0
  7382 ;;      Temps:          0       5       0       0       0
  7383 ;;      Totals:         0      11       0       0       0
  7384 ;;Total ram usage:       11 bytes
  7385 ;; Hardware stack levels used:    1
  7386 ;; This function calls:
  7387 ;;		Nothing
  7388 ;; This function is called by:
  7389 ;;		_sprintf
  7390 ;; This function uses a non-reentrant model
  7391 ;;
  7392                           
  7393                           
  7394                           ;psect for function ___fltol
  7395  1F84                     ___fltol:	
  7396  1F84                     l2867:	
  7397                           ;incstack = 0
  7398                           ; Regs used in ___fltol: [wreg+status,2+status,0]
  7399                           
  7400  1F84  1003               	clrc
  7401  1F85  1283               	bcf	3,5	;RP0=0, select bank0
  7402  1F86  1303               	bcf	3,6	;RP1=0, select bank0
  7403  1F87  0D53               	rlf	___fltol@f1+2,w
  7404  1F88  0D54               	rlf	___fltol@f1+3,w
  7405  1F89  00D5               	movwf	??___fltol
  7406  1F8A  0855               	movf	??___fltol,w
  7407  1F8B  00DB               	movwf	___fltol@exp1
  7408  1F8C  085B               	movf	___fltol@exp1,w
  7409  1F8D  1D03               	btfss	3,2
  7410  1F8E  2F90               	goto	u4871
  7411  1F8F  2F91               	goto	u4870
  7412  1F90                     u4871:	
  7413  1F90  2F9A               	goto	l2873
  7414  1F91                     u4870:	
  7415  1F91                     l2869:	
  7416  1F91  3000               	movlw	0
  7417  1F92  00D4               	movwf	?___fltol+3
  7418  1F93  3000               	movlw	0
  7419  1F94  00D3               	movwf	?___fltol+2
  7420  1F95  3000               	movlw	0
  7421  1F96  00D2               	movwf	?___fltol+1
  7422  1F97  3000               	movlw	0
  7423  1F98  00D1               	movwf	?___fltol
  7424  1F99  2FFF               	goto	l466
  7425  1F9A                     l2873:	
  7426  1F9A  0851               	movf	___fltol@f1,w
  7427  1F9B  00D5               	movwf	??___fltol
  7428  1F9C  0852               	movf	___fltol@f1+1,w
  7429  1F9D  00D6               	movwf	??___fltol+1
  7430  1F9E  0853               	movf	___fltol@f1+2,w
  7431  1F9F  00D7               	movwf	??___fltol+2
  7432  1FA0  0854               	movf	___fltol@f1+3,w
  7433  1FA1  00D8               	movwf	??___fltol+3
  7434  1FA2  301F               	movlw	31
  7435  1FA3                     u4885:	
  7436  1FA3  1003               	clrc
  7437  1FA4  0CD8               	rrf	??___fltol+3,f
  7438  1FA5  0CD7               	rrf	??___fltol+2,f
  7439  1FA6  0CD6               	rrf	??___fltol+1,f
  7440  1FA7  0CD5               	rrf	??___fltol,f
  7441  1FA8                     u4880:	
  7442  1FA8  3EFF               	addlw	-1
  7443  1FA9  1D03               	skipz
  7444  1FAA  2FA3               	goto	u4885
  7445  1FAB  0855               	movf	??___fltol,w
  7446  1FAC  00D9               	movwf	??___fltol+4
  7447  1FAD  0859               	movf	??___fltol+4,w
  7448  1FAE  00DA               	movwf	___fltol@sign1
  7449  1FAF                     l2875:	
  7450  1FAF  17D3               	bsf	___fltol@f1+2,7
  7451  1FB0                     l2877:	
  7452  1FB0  30FF               	movlw	255
  7453  1FB1  05D1               	andwf	___fltol@f1,f
  7454  1FB2  30FF               	movlw	255
  7455  1FB3  05D2               	andwf	___fltol@f1+1,f
  7456  1FB4  30FF               	movlw	255
  7457  1FB5  05D3               	andwf	___fltol@f1+2,f
  7458  1FB6  3000               	movlw	0
  7459  1FB7  05D4               	andwf	___fltol@f1+3,f
  7460  1FB8                     l2879:	
  7461  1FB8  3096               	movlw	150
  7462  1FB9  02DB               	subwf	___fltol@exp1,f
  7463  1FBA                     l2881:	
  7464  1FBA  1FDB               	btfss	___fltol@exp1,7
  7465  1FBB  2FBD               	goto	u4891
  7466  1FBC  2FBE               	goto	u4890
  7467  1FBD                     u4891:	
  7468  1FBD  2FD8               	goto	l2891
  7469  1FBE                     u4890:	
  7470  1FBE                     l2883:	
  7471  1FBE  085B               	movf	___fltol@exp1,w
  7472  1FBF  3A80               	xorlw	128
  7473  1FC0  3E97               	addlw	151
  7474  1FC1  1803               	skipnc
  7475  1FC2  2FC4               	goto	u4901
  7476  1FC3  2FC5               	goto	u4900
  7477  1FC4                     u4901:	
  7478  1FC4  2FC6               	goto	l2889
  7479  1FC5                     u4900:	
  7480  1FC5  2F91               	goto	l2869
  7481  1FC6                     l2889:	
  7482  1FC6  3001               	movlw	1
  7483  1FC7                     u4915:	
  7484  1FC7  1003               	clrc
  7485  1FC8  0CD4               	rrf	___fltol@f1+3,f
  7486  1FC9  0CD3               	rrf	___fltol@f1+2,f
  7487  1FCA  0CD2               	rrf	___fltol@f1+1,f
  7488  1FCB  0CD1               	rrf	___fltol@f1,f
  7489  1FCC  3EFF               	addlw	-1
  7490  1FCD  1D03               	skipz
  7491  1FCE  2FC7               	goto	u4915
  7492  1FCF  3001               	movlw	1
  7493  1FD0  00D5               	movwf	??___fltol
  7494  1FD1  0855               	movf	??___fltol,w
  7495  1FD2  07DB               	addwf	___fltol@exp1,f
  7496  1FD3  1D03               	btfss	3,2
  7497  1FD4  2FD6               	goto	u4921
  7498  1FD5  2FD7               	goto	u4920
  7499  1FD6                     u4921:	
  7500  1FD6  2FC6               	goto	l2889
  7501  1FD7                     u4920:	
  7502  1FD7  2FEF               	goto	l2899
  7503  1FD8                     l2891:	
  7504  1FD8  3020               	movlw	32
  7505  1FD9  025B               	subwf	___fltol@exp1,w
  7506  1FDA  1C03               	skipc
  7507  1FDB  2FDD               	goto	u4931
  7508  1FDC  2FDE               	goto	u4930
  7509  1FDD                     u4931:	
  7510  1FDD  2FEA               	goto	l473
  7511  1FDE                     u4930:	
  7512  1FDE  2F91               	goto	l2869
  7513  1FDF                     l2897:	
  7514  1FDF  3001               	movlw	1
  7515  1FE0  00D5               	movwf	??___fltol
  7516  1FE1                     u4945:	
  7517  1FE1  1003               	clrc
  7518  1FE2  0DD1               	rlf	___fltol@f1,f
  7519  1FE3  0DD2               	rlf	___fltol@f1+1,f
  7520  1FE4  0DD3               	rlf	___fltol@f1+2,f
  7521  1FE5  0DD4               	rlf	___fltol@f1+3,f
  7522  1FE6  0BD5               	decfsz	??___fltol,f
  7523  1FE7  2FE1               	goto	u4945
  7524  1FE8  3001               	movlw	1
  7525  1FE9  02DB               	subwf	___fltol@exp1,f
  7526  1FEA                     l473:	
  7527  1FEA  085B               	movf	___fltol@exp1,w
  7528  1FEB  1D03               	btfss	3,2
  7529  1FEC  2FEE               	goto	u4951
  7530  1FED  2FEF               	goto	u4950
  7531  1FEE                     u4951:	
  7532  1FEE  2FDF               	goto	l2897
  7533  1FEF                     u4950:	
  7534  1FEF                     l2899:	
  7535  1FEF  085A               	movf	___fltol@sign1,w
  7536  1FF0  1903               	btfsc	3,2
  7537  1FF1  2FF3               	goto	u4961
  7538  1FF2  2FF4               	goto	u4960
  7539  1FF3                     u4961:	
  7540  1FF3  2FFF               	goto	l476
  7541  1FF4                     u4960:	
  7542  1FF4                     l2901:	
  7543  1FF4  09D1               	comf	___fltol@f1,f
  7544  1FF5  09D2               	comf	___fltol@f1+1,f
  7545  1FF6  09D3               	comf	___fltol@f1+2,f
  7546  1FF7  09D4               	comf	___fltol@f1+3,f
  7547  1FF8  0AD1               	incf	___fltol@f1,f
  7548  1FF9  1903               	skipnz
  7549  1FFA  0AD2               	incf	___fltol@f1+1,f
  7550  1FFB  1903               	skipnz
  7551  1FFC  0AD3               	incf	___fltol@f1+2,f
  7552  1FFD  1903               	skipnz
  7553  1FFE  0AD4               	incf	___fltol@f1+3,f
  7554  1FFF                     l476:	
  7555  1FFF                     l466:	
  7556  1FFF  0008               	return
  7557  2000                     __end_of___fltol:	
  7558                           
  7559                           	psect	text19
  7560  1BFB                     __ptext19:	
  7561 ;; *************** function ___flsub *****************
  7562 ;; Defined at:
  7563 ;;		line 242 in file "C:\Program Files (x86)\Microchip\xc8\v2.10\pic\sources\c90\common\sprcadd.c"
  7564 ;; Parameters:    Size  Location     Type
  7565 ;;  a               4   70[BANK0 ] long 
  7566 ;;  b               4   74[BANK0 ] long 
  7567 ;; Auto vars:     Size  Location     Type
  7568 ;;		None
  7569 ;; Return value:  Size  Location     Type
  7570 ;;                  4   70[BANK0 ] long 
  7571 ;; Registers used:
  7572 ;;		wreg, status,2, status,0, btemp+1, pclath, cstack
  7573 ;; Tracked objects:
  7574 ;;		On entry : 0/0
  7575 ;;		On exit  : 0/0
  7576 ;;		Unchanged: 0/0
  7577 ;; Data sizes:     COMMON   BANK0   BANK1   BANK3   BANK2
  7578 ;;      Params:         0       8       0       0       0
  7579 ;;      Locals:         0       0       0       0       0
  7580 ;;      Temps:          0       0       0       0       0
  7581 ;;      Totals:         0       8       0       0       0
  7582 ;;Total ram usage:        8 bytes
  7583 ;; Hardware stack levels used:    1
  7584 ;; Hardware stack levels required when called:    1
  7585 ;; This function calls:
  7586 ;;		___fladd
  7587 ;; This function is called by:
  7588 ;;		_sprintf
  7589 ;; This function uses a non-reentrant model
  7590 ;;
  7591                           
  7592                           
  7593                           ;psect for function ___flsub
  7594  1BFB                     ___flsub:	
  7595  1BFB                     l2923:	
  7596                           ;incstack = 0
  7597                           ; Regs used in ___flsub: [wreg+status,2+status,0+btemp+1+pclath+cstack]
  7598                           
  7599  1BFB  3080               	movlw	128
  7600  1BFC  1283               	bcf	3,5	;RP0=0, select bank0
  7601  1BFD  1303               	bcf	3,6	;RP1=0, select bank0
  7602  1BFE  06E9               	xorwf	___flsub@a+3,f
  7603  1BFF                     l2925:	
  7604  1BFF  086D               	movf	___flsub@b+3,w
  7605  1C00  00D5               	movwf	___fladd@b+3
  7606  1C01  086C               	movf	___flsub@b+2,w
  7607  1C02  00D4               	movwf	___fladd@b+2
  7608  1C03  086B               	movf	___flsub@b+1,w
  7609  1C04  00D3               	movwf	___fladd@b+1
  7610  1C05  086A               	movf	___flsub@b,w
  7611  1C06  00D2               	movwf	___fladd@b
  7612  1C07  0869               	movf	___flsub@a+3,w
  7613  1C08  00D9               	movwf	___fladd@a+3
  7614  1C09  0868               	movf	___flsub@a+2,w
  7615  1C0A  00D8               	movwf	___fladd@a+2
  7616  1C0B  0867               	movf	___flsub@a+1,w
  7617  1C0C  00D7               	movwf	___fladd@a+1
  7618  1C0D  0866               	movf	___flsub@a,w
  7619  1C0E  00D6               	movwf	___fladd@a
  7620  1C0F  160A  118A  2578  160A  158A  	fcall	___fladd
  7621  1C14  1283               	bcf	3,5	;RP0=0, select bank0
  7622  1C15  1303               	bcf	3,6	;RP1=0, select bank0
  7623  1C16  0855               	movf	?___fladd+3,w
  7624  1C17  00E9               	movwf	?___flsub+3
  7625  1C18  0854               	movf	?___fladd+2,w
  7626  1C19  00E8               	movwf	?___flsub+2
  7627  1C1A  0853               	movf	?___fladd+1,w
  7628  1C1B  00E7               	movwf	?___flsub+1
  7629  1C1C  0852               	movf	?___fladd,w
  7630  1C1D  00E6               	movwf	?___flsub
  7631  1C1E                     l636:	
  7632  1C1E  0008               	return
  7633  1C1F                     __end_of___flsub:	
  7634                           
  7635                           	psect	text20
  7636  1578                     __ptext20:	
  7637 ;; *************** function ___fladd *****************
  7638 ;; Defined at:
  7639 ;;		line 10 in file "C:\Program Files (x86)\Microchip\xc8\v2.10\pic\sources\c90\common\sprcadd.c"
  7640 ;; Parameters:    Size  Location     Type
  7641 ;;  b               4   50[BANK0 ] long 
  7642 ;;  a               4   54[BANK0 ] long 
  7643 ;; Auto vars:     Size  Location     Type
  7644 ;;  grs             1   69[BANK0 ] unsigned char 
  7645 ;;  bexp            1   68[BANK0 ] unsigned char 
  7646 ;;  aexp            1   67[BANK0 ] unsigned char 
  7647 ;;  signs           1   66[BANK0 ] unsigned char 
  7648 ;; Return value:  Size  Location     Type
  7649 ;;                  4   50[BANK0 ] unsigned char 
  7650 ;; Registers used:
  7651 ;;		wreg, status,2, status,0, btemp+1
  7652 ;; Tracked objects:
  7653 ;;		On entry : 0/0
  7654 ;;		On exit  : 0/0
  7655 ;;		Unchanged: 0/0
  7656 ;; Data sizes:     COMMON   BANK0   BANK1   BANK3   BANK2
  7657 ;;      Params:         0       8       0       0       0
  7658 ;;      Locals:         0       4       0       0       0
  7659 ;;      Temps:          0       8       0       0       0
  7660 ;;      Totals:         0      20       0       0       0
  7661 ;;Total ram usage:       20 bytes
  7662 ;; Hardware stack levels used:    1
  7663 ;; This function calls:
  7664 ;;		Nothing
  7665 ;; This function is called by:
  7666 ;;		_sprintf
  7667 ;;		___flsub
  7668 ;; This function uses a non-reentrant model
  7669 ;;
  7670                           
  7671                           
  7672                           ;psect for function ___fladd
  7673  1578                     ___fladd:	
  7674  1578                     l2267:	
  7675                           ;incstack = 0
  7676                           ; Regs used in ___fladd: [wreg+status,2+status,0+btemp+1]
  7677                           
  7678  1578  1283               	bcf	3,5	;RP0=0, select bank0
  7679  1579  1303               	bcf	3,6	;RP1=0, select bank0
  7680  157A  0855               	movf	___fladd@b+3,w
  7681  157B  3980               	andlw	128
  7682  157C  00DA               	movwf	??___fladd
  7683  157D  085A               	movf	??___fladd,w
  7684  157E  00E2               	movwf	___fladd@signs
  7685  157F                     l2269:	
  7686  157F  0855               	movf	___fladd@b+3,w
  7687  1580  00DA               	movwf	??___fladd
  7688  1581  075A               	addwf	??___fladd,w
  7689  1582  00DB               	movwf	??___fladd+1
  7690  1583  085B               	movf	??___fladd+1,w
  7691  1584  00E4               	movwf	___fladd@bexp
  7692  1585                     l2271:	
  7693  1585  1FD4               	btfss	___fladd@b+2,7
  7694  1586  2D88               	goto	u3301
  7695  1587  2D89               	goto	u3300
  7696  1588                     u3301:	
  7697  1588  2D8A               	goto	l2275
  7698  1589                     u3300:	
  7699  1589                     l2273:	
  7700  1589  1464               	bsf	___fladd@bexp,0
  7701  158A                     l2275:	
  7702  158A  0864               	movf	___fladd@bexp,w
  7703  158B  1903               	btfsc	3,2
  7704  158C  2D8E               	goto	u3311
  7705  158D  2D8F               	goto	u3310
  7706  158E                     u3311:	
  7707  158E  2D9F               	goto	l2285
  7708  158F                     u3310:	
  7709  158F                     l2277:	
  7710  158F  0A64               	incf	___fladd@bexp,w
  7711  1590  1D03               	btfss	3,2
  7712  1591  2D93               	goto	u3321
  7713  1592  2D94               	goto	u3320
  7714  1593                     u3321:	
  7715  1593  2D9C               	goto	l2281
  7716  1594                     u3320:	
  7717  1594                     l2279:	
  7718  1594  3000               	movlw	0
  7719  1595  00D5               	movwf	___fladd@b+3
  7720  1596  3000               	movlw	0
  7721  1597  00D4               	movwf	___fladd@b+2
  7722  1598  3000               	movlw	0
  7723  1599  00D3               	movwf	___fladd@b+1
  7724  159A  3000               	movlw	0
  7725  159B  00D2               	movwf	___fladd@b
  7726  159C                     l2281:	
  7727  159C  17D4               	bsf	___fladd@b+2,7
  7728  159D                     l2283:	
  7729  159D  01D5               	clrf	___fladd@b+3
  7730  159E  2DA7               	goto	l2287
  7731  159F                     l2285:	
  7732  159F  3000               	movlw	0
  7733  15A0  00D5               	movwf	___fladd@b+3
  7734  15A1  3000               	movlw	0
  7735  15A2  00D4               	movwf	___fladd@b+2
  7736  15A3  3000               	movlw	0
  7737  15A4  00D3               	movwf	___fladd@b+1
  7738  15A5  3000               	movlw	0
  7739  15A6  00D2               	movwf	___fladd@b
  7740  15A7                     l2287:	
  7741  15A7  0859               	movf	___fladd@a+3,w
  7742  15A8  3980               	andlw	128
  7743  15A9  00DA               	movwf	??___fladd
  7744  15AA  085A               	movf	??___fladd,w
  7745  15AB  00E3               	movwf	___fladd@aexp
  7746  15AC                     l2289:	
  7747  15AC  0863               	movf	___fladd@aexp,w
  7748  15AD  0662               	xorwf	___fladd@signs,w
  7749  15AE  1903               	skipnz
  7750  15AF  2DB1               	goto	u3331
  7751  15B0  2DB2               	goto	u3330
  7752  15B1                     u3331:	
  7753  15B1  2DB3               	goto	l2293
  7754  15B2                     u3330:	
  7755  15B2                     l2291:	
  7756  15B2  1762               	bsf	___fladd@signs,6
  7757  15B3                     l2293:	
  7758  15B3  0859               	movf	___fladd@a+3,w
  7759  15B4  00DA               	movwf	??___fladd
  7760  15B5  075A               	addwf	??___fladd,w
  7761  15B6  00DB               	movwf	??___fladd+1
  7762  15B7  085B               	movf	??___fladd+1,w
  7763  15B8  00E3               	movwf	___fladd@aexp
  7764  15B9                     l2295:	
  7765  15B9  1FD8               	btfss	___fladd@a+2,7
  7766  15BA  2DBC               	goto	u3341
  7767  15BB  2DBD               	goto	u3340
  7768  15BC                     u3341:	
  7769  15BC  2DBE               	goto	l2299
  7770  15BD                     u3340:	
  7771  15BD                     l2297:	
  7772  15BD  1463               	bsf	___fladd@aexp,0
  7773  15BE                     l2299:	
  7774  15BE  0863               	movf	___fladd@aexp,w
  7775  15BF  1903               	btfsc	3,2
  7776  15C0  2DC2               	goto	u3351
  7777  15C1  2DC3               	goto	u3350
  7778  15C2                     u3351:	
  7779  15C2  2DD3               	goto	l2309
  7780  15C3                     u3350:	
  7781  15C3                     l2301:	
  7782  15C3  0A63               	incf	___fladd@aexp,w
  7783  15C4  1D03               	btfss	3,2
  7784  15C5  2DC7               	goto	u3361
  7785  15C6  2DC8               	goto	u3360
  7786  15C7                     u3361:	
  7787  15C7  2DD0               	goto	l2305
  7788  15C8                     u3360:	
  7789  15C8                     l2303:	
  7790  15C8  3000               	movlw	0
  7791  15C9  00D9               	movwf	___fladd@a+3
  7792  15CA  3000               	movlw	0
  7793  15CB  00D8               	movwf	___fladd@a+2
  7794  15CC  3000               	movlw	0
  7795  15CD  00D7               	movwf	___fladd@a+1
  7796  15CE  3000               	movlw	0
  7797  15CF  00D6               	movwf	___fladd@a
  7798  15D0                     l2305:	
  7799  15D0  17D8               	bsf	___fladd@a+2,7
  7800  15D1                     l2307:	
  7801  15D1  01D9               	clrf	___fladd@a+3
  7802  15D2  2DDB               	goto	l590
  7803  15D3                     l2309:	
  7804  15D3  3000               	movlw	0
  7805  15D4  00D9               	movwf	___fladd@a+3
  7806  15D5  3000               	movlw	0
  7807  15D6  00D8               	movwf	___fladd@a+2
  7808  15D7  3000               	movlw	0
  7809  15D8  00D7               	movwf	___fladd@a+1
  7810  15D9  3000               	movlw	0
  7811  15DA  00D6               	movwf	___fladd@a
  7812  15DB                     l590:	
  7813  15DB  0864               	movf	___fladd@bexp,w
  7814  15DC  0263               	subwf	___fladd@aexp,w
  7815  15DD  1803               	skipnc
  7816  15DE  2DE0               	goto	u3371
  7817  15DF  2DE1               	goto	u3370
  7818  15E0                     u3371:	
  7819  15E0  2E25               	goto	l2345
  7820  15E1                     u3370:	
  7821  15E1                     l2311:	
  7822  15E1  1F62               	btfss	___fladd@signs,6
  7823  15E2  2DE4               	goto	u3381
  7824  15E3  2DE5               	goto	u3380
  7825  15E4                     u3381:	
  7826  15E4  2DE9               	goto	l2315
  7827  15E5                     u3380:	
  7828  15E5                     l2313:	
  7829  15E5  3080               	movlw	128
  7830  15E6  00DA               	movwf	??___fladd
  7831  15E7  085A               	movf	??___fladd,w
  7832  15E8  06E2               	xorwf	___fladd@signs,f
  7833  15E9                     l2315:	
  7834  15E9  0864               	movf	___fladd@bexp,w
  7835  15EA  00DA               	movwf	??___fladd
  7836  15EB  085A               	movf	??___fladd,w
  7837  15EC  00E5               	movwf	___fladd@grs
  7838  15ED                     l2317:	
  7839  15ED  0863               	movf	___fladd@aexp,w
  7840  15EE  00DA               	movwf	??___fladd
  7841  15EF  085A               	movf	??___fladd,w
  7842  15F0  00E4               	movwf	___fladd@bexp
  7843  15F1                     l2319:	
  7844  15F1  0865               	movf	___fladd@grs,w
  7845  15F2  00DA               	movwf	??___fladd
  7846  15F3  085A               	movf	??___fladd,w
  7847  15F4  00E3               	movwf	___fladd@aexp
  7848  15F5                     l2321:	
  7849  15F5  0852               	movf	___fladd@b,w
  7850  15F6  00DA               	movwf	??___fladd
  7851  15F7  085A               	movf	??___fladd,w
  7852  15F8  00E5               	movwf	___fladd@grs
  7853  15F9                     l2323:	
  7854  15F9  0856               	movf	___fladd@a,w
  7855  15FA  00DA               	movwf	??___fladd
  7856  15FB  085A               	movf	??___fladd,w
  7857  15FC  00D2               	movwf	___fladd@b
  7858  15FD                     l2325:	
  7859  15FD  0865               	movf	___fladd@grs,w
  7860  15FE  00DA               	movwf	??___fladd
  7861  15FF  085A               	movf	??___fladd,w
  7862  1600  00D6               	movwf	___fladd@a
  7863  1601                     l2327:	
  7864  1601  0853               	movf	___fladd@b+1,w
  7865  1602  00DA               	movwf	??___fladd
  7866  1603  085A               	movf	??___fladd,w
  7867  1604  00E5               	movwf	___fladd@grs
  7868  1605                     l2329:	
  7869  1605  0857               	movf	___fladd@a+1,w
  7870  1606  00DA               	movwf	??___fladd
  7871  1607  085A               	movf	??___fladd,w
  7872  1608  00D3               	movwf	___fladd@b+1
  7873  1609                     l2331:	
  7874  1609  0865               	movf	___fladd@grs,w
  7875  160A  00DA               	movwf	??___fladd
  7876  160B  085A               	movf	??___fladd,w
  7877  160C  00D7               	movwf	___fladd@a+1
  7878  160D                     l2333:	
  7879  160D  0854               	movf	___fladd@b+2,w
  7880  160E  00DA               	movwf	??___fladd
  7881  160F  085A               	movf	??___fladd,w
  7882  1610  00E5               	movwf	___fladd@grs
  7883  1611                     l2335:	
  7884  1611  0858               	movf	___fladd@a+2,w
  7885  1612  00DA               	movwf	??___fladd
  7886  1613  085A               	movf	??___fladd,w
  7887  1614  00D4               	movwf	___fladd@b+2
  7888  1615                     l2337:	
  7889  1615  0865               	movf	___fladd@grs,w
  7890  1616  00DA               	movwf	??___fladd
  7891  1617  085A               	movf	??___fladd,w
  7892  1618  00D8               	movwf	___fladd@a+2
  7893  1619                     l2339:	
  7894  1619  0855               	movf	___fladd@b+3,w
  7895  161A  00DA               	movwf	??___fladd
  7896  161B  085A               	movf	??___fladd,w
  7897  161C  00E5               	movwf	___fladd@grs
  7898  161D                     l2341:	
  7899  161D  0859               	movf	___fladd@a+3,w
  7900  161E  00DA               	movwf	??___fladd
  7901  161F  085A               	movf	??___fladd,w
  7902  1620  00D5               	movwf	___fladd@b+3
  7903  1621                     l2343:	
  7904  1621  0865               	movf	___fladd@grs,w
  7905  1622  00DA               	movwf	??___fladd
  7906  1623  085A               	movf	??___fladd,w
  7907  1624  00D9               	movwf	___fladd@a+3
  7908  1625                     l2345:	
  7909  1625  01E5               	clrf	___fladd@grs
  7910  1626                     l2347:	
  7911  1626  0863               	movf	___fladd@aexp,w
  7912  1627  00DA               	movwf	??___fladd
  7913  1628  01DB               	clrf	??___fladd+1
  7914  1629  085B               	movf	??___fladd+1,w
  7915  162A  00DD               	movwf	??___fladd+3
  7916  162B  0864               	movf	___fladd@bexp,w
  7917  162C  025A               	subwf	??___fladd,w
  7918  162D  00DC               	movwf	??___fladd+2
  7919  162E  1C03               	skipc
  7920  162F  03DD               	decf	??___fladd+3,f
  7921  1630  085D               	movf	??___fladd+3,w
  7922  1631  3A80               	xorlw	128
  7923  1632  00FF               	movwf	btemp+1
  7924  1633  3080               	movlw	128
  7925  1634  027F               	subwf	btemp+1,w
  7926  1635  1D03               	skipz
  7927  1636  2E39               	goto	u3395
  7928  1637  301A               	movlw	26
  7929  1638  025C               	subwf	??___fladd+2,w
  7930  1639                     u3395:	
  7931  1639  1C03               	skipc
  7932  163A  2E3C               	goto	u3391
  7933  163B  2E3D               	goto	u3390
  7934  163C                     u3391:	
  7935  163C  2E7A               	goto	l2363
  7936  163D                     u3390:	
  7937  163D                     l2349:	
  7938  163D  1283               	bcf	3,5	;RP0=0, select bank0
  7939  163E  1303               	bcf	3,6	;RP1=0, select bank0
  7940  163F  0855               	movf	___fladd@b+3,w
  7941  1640  0454               	iorwf	___fladd@b+2,w
  7942  1641  0453               	iorwf	___fladd@b+1,w
  7943  1642  0452               	iorwf	___fladd@b,w
  7944  1643  1D03               	skipz
  7945  1644  2E46               	goto	u3401
  7946  1645  2E48               	goto	u3400
  7947  1646                     u3401:	
  7948  1646  3001               	movlw	1
  7949  1647  2E49               	goto	u3410
  7950  1648                     u3400:	
  7951  1648  3000               	movlw	0
  7952  1649                     u3410:	
  7953  1649  00DA               	movwf	??___fladd
  7954  164A  085A               	movf	??___fladd,w
  7955  164B  00E5               	movwf	___fladd@grs
  7956  164C  3000               	movlw	0
  7957  164D  00D5               	movwf	___fladd@b+3
  7958  164E  3000               	movlw	0
  7959  164F  00D4               	movwf	___fladd@b+2
  7960  1650  3000               	movlw	0
  7961  1651  00D3               	movwf	___fladd@b+1
  7962  1652  3000               	movlw	0
  7963  1653  00D2               	movwf	___fladd@b
  7964  1654  0863               	movf	___fladd@aexp,w
  7965  1655  00DA               	movwf	??___fladd
  7966  1656  085A               	movf	??___fladd,w
  7967  1657  00E4               	movwf	___fladd@bexp
  7968  1658  2E82               	goto	l594
  7969  1659                     l596:	
  7970  1659  1C65               	btfss	___fladd@grs,0
  7971  165A  2E5C               	goto	u3421
  7972  165B  2E5D               	goto	u3420
  7973  165C                     u3421:	
  7974  165C  2E66               	goto	l2353
  7975  165D                     u3420:	
  7976  165D                     l2351:	
  7977  165D  0865               	movf	___fladd@grs,w
  7978  165E  00DA               	movwf	??___fladd
  7979  165F  1003               	clrc
  7980  1660  0C5A               	rrf	??___fladd,w
  7981  1661  3801               	iorlw	1
  7982  1662  00DB               	movwf	??___fladd+1
  7983  1663  085B               	movf	??___fladd+1,w
  7984  1664  00E5               	movwf	___fladd@grs
  7985  1665  2E68               	goto	l2355
  7986  1666                     l2353:	
  7987  1666  1003               	clrc
  7988  1667  0CE5               	rrf	___fladd@grs,f
  7989  1668                     l2355:	
  7990  1668  1C52               	btfss	___fladd@b,0
  7991  1669  2E6B               	goto	u3431
  7992  166A  2E6C               	goto	u3430
  7993  166B                     u3431:	
  7994  166B  2E6D               	goto	l2359
  7995  166C                     u3430:	
  7996  166C                     l2357:	
  7997  166C  17E5               	bsf	___fladd@grs,7
  7998  166D                     l2359:	
  7999  166D  3001               	movlw	1
  8000  166E  00DA               	movwf	??___fladd
  8001  166F                     u3445:	
  8002  166F  0D55               	rlf	___fladd@b+3,w
  8003  1670  0CD5               	rrf	___fladd@b+3,f
  8004  1671  0CD4               	rrf	___fladd@b+2,f
  8005  1672  0CD3               	rrf	___fladd@b+1,f
  8006  1673  0CD2               	rrf	___fladd@b,f
  8007  1674  0BDA               	decfsz	??___fladd& (0+127),f
  8008  1675  2E6F               	goto	u3445
  8009  1676                     l2361:	
  8010  1676  3001               	movlw	1
  8011  1677  00DA               	movwf	??___fladd
  8012  1678  085A               	movf	??___fladd,w
  8013  1679  07E4               	addwf	___fladd@bexp,f
  8014  167A                     l2363:	
  8015  167A  1283               	bcf	3,5	;RP0=0, select bank0
  8016  167B  1303               	bcf	3,6	;RP1=0, select bank0
  8017  167C  0863               	movf	___fladd@aexp,w
  8018  167D  0264               	subwf	___fladd@bexp,w
  8019  167E  1C03               	skipc
  8020  167F  2E81               	goto	u3451
  8021  1680  2E82               	goto	u3450
  8022  1681                     u3451:	
  8023  1681  2E59               	goto	l596
  8024  1682                     u3450:	
  8025  1682                     l594:	
  8026  1682  1B62               	btfsc	___fladd@signs,6
  8027  1683  2E85               	goto	u3461
  8028  1684  2E86               	goto	u3460
  8029  1685                     u3461:	
  8030  1685  2ED1               	goto	l2389
  8031  1686                     u3460:	
  8032  1686                     l2365:	
  8033  1686  0864               	movf	___fladd@bexp,w
  8034  1687  1D03               	btfss	3,2
  8035  1688  2E8A               	goto	u3471
  8036  1689  2E8B               	goto	u3470
  8037  168A                     u3471:	
  8038  168A  2E94               	goto	l2371
  8039  168B                     u3470:	
  8040  168B                     l2367:	
  8041  168B  3000               	movlw	0
  8042  168C  00D5               	movwf	?___fladd+3
  8043  168D  3000               	movlw	0
  8044  168E  00D4               	movwf	?___fladd+2
  8045  168F  3000               	movlw	0
  8046  1690  00D3               	movwf	?___fladd+1
  8047  1691  3000               	movlw	0
  8048  1692  00D2               	movwf	?___fladd
  8049  1693  2FFF               	goto	l603
  8050  1694                     l2371:	
  8051  1694  0856               	movf	___fladd@a,w
  8052  1695  07D2               	addwf	___fladd@b,f
  8053  1696  0857               	movf	___fladd@a+1,w
  8054  1697  1103               	clrz
  8055  1698  1803               	skipnc
  8056  1699  3E01               	addlw	1
  8057  169A  1903               	skipnz
  8058  169B  2E9D               	goto	u3481
  8059  169C  07D3               	addwf	___fladd@b+1,f
  8060  169D                     u3481:	
  8061  169D  0858               	movf	___fladd@a+2,w
  8062  169E  1103               	clrz
  8063  169F  1803               	skipnc
  8064  16A0  3E01               	addlw	1
  8065  16A1  1903               	skipnz
  8066  16A2  2EA4               	goto	u3482
  8067  16A3  07D4               	addwf	___fladd@b+2,f
  8068  16A4                     u3482:	
  8069  16A4  0859               	movf	___fladd@a+3,w
  8070  16A5  1103               	clrz
  8071  16A6  1803               	skipnc
  8072  16A7  3E01               	addlw	1
  8073  16A8  1903               	skipnz
  8074  16A9  2EAB               	goto	u3483
  8075  16AA  07D5               	addwf	___fladd@b+3,f
  8076  16AB                     u3483:	
  8077  16AB                     l2373:	
  8078  16AB  1C55               	btfss	___fladd@b+3,0
  8079  16AC  2EAE               	goto	u3491
  8080  16AD  2EAF               	goto	u3490
  8081  16AE                     u3491:	
  8082  16AE  2F85               	goto	l2423
  8083  16AF                     u3490:	
  8084  16AF                     l2375:	
  8085  16AF  1C65               	btfss	___fladd@grs,0
  8086  16B0  2EB2               	goto	u3501
  8087  16B1  2EB3               	goto	u3500
  8088  16B2                     u3501:	
  8089  16B2  2EBC               	goto	l2379
  8090  16B3                     u3500:	
  8091  16B3                     l2377:	
  8092  16B3  0865               	movf	___fladd@grs,w
  8093  16B4  00DA               	movwf	??___fladd
  8094  16B5  1003               	clrc
  8095  16B6  0C5A               	rrf	??___fladd,w
  8096  16B7  3801               	iorlw	1
  8097  16B8  00DB               	movwf	??___fladd+1
  8098  16B9  085B               	movf	??___fladd+1,w
  8099  16BA  00E5               	movwf	___fladd@grs
  8100  16BB  2EBE               	goto	l2381
  8101  16BC                     l2379:	
  8102  16BC  1003               	clrc
  8103  16BD  0CE5               	rrf	___fladd@grs,f
  8104  16BE                     l2381:	
  8105  16BE  1C52               	btfss	___fladd@b,0
  8106  16BF  2EC1               	goto	u3511
  8107  16C0  2EC2               	goto	u3510
  8108  16C1                     u3511:	
  8109  16C1  2EC3               	goto	l2385
  8110  16C2                     u3510:	
  8111  16C2                     l2383:	
  8112  16C2  17E5               	bsf	___fladd@grs,7
  8113  16C3                     l2385:	
  8114  16C3  3001               	movlw	1
  8115  16C4  00DA               	movwf	??___fladd
  8116  16C5                     u3525:	
  8117  16C5  0D55               	rlf	___fladd@b+3,w
  8118  16C6  0CD5               	rrf	___fladd@b+3,f
  8119  16C7  0CD4               	rrf	___fladd@b+2,f
  8120  16C8  0CD3               	rrf	___fladd@b+1,f
  8121  16C9  0CD2               	rrf	___fladd@b,f
  8122  16CA  0BDA               	decfsz	??___fladd& (0+127),f
  8123  16CB  2EC5               	goto	u3525
  8124  16CC                     l2387:	
  8125  16CC  3001               	movlw	1
  8126  16CD  00DA               	movwf	??___fladd
  8127  16CE  085A               	movf	??___fladd,w
  8128  16CF  07E4               	addwf	___fladd@bexp,f
  8129  16D0  2F85               	goto	l2423
  8130  16D1                     l2389:	
  8131  16D1  0855               	movf	___fladd@b+3,w
  8132  16D2  3A80               	xorlw	128
  8133  16D3  00FF               	movwf	btemp+1
  8134  16D4  0859               	movf	___fladd@a+3,w
  8135  16D5  3A80               	xorlw	128
  8136  16D6  027F               	subwf	btemp+1,w
  8137  16D7  1D03               	skipz
  8138  16D8  2EE3               	goto	u3533
  8139  16D9  0858               	movf	___fladd@a+2,w
  8140  16DA  0254               	subwf	___fladd@b+2,w
  8141  16DB  1D03               	skipz
  8142  16DC  2EE3               	goto	u3533
  8143  16DD  0857               	movf	___fladd@a+1,w
  8144  16DE  0253               	subwf	___fladd@b+1,w
  8145  16DF  1D03               	skipz
  8146  16E0  2EE3               	goto	u3533
  8147  16E1  0856               	movf	___fladd@a,w
  8148  16E2  0252               	subwf	___fladd@b,w
  8149  16E3                     u3533:	
  8150  16E3  1803               	skipnc
  8151  16E4  2EE6               	goto	u3531
  8152  16E5  2EE7               	goto	u3530
  8153  16E6                     u3531:	
  8154  16E6  2F3F               	goto	l2399
  8155  16E7                     u3530:	
  8156  16E7                     l2391:	
  8157  16E7  30FF               	movlw	255
  8158  16E8  00DA               	movwf	??___fladd
  8159  16E9  30FF               	movlw	255
  8160  16EA  00DB               	movwf	??___fladd+1
  8161  16EB  30FF               	movlw	255
  8162  16EC  00DC               	movwf	??___fladd+2
  8163  16ED  30FF               	movlw	255
  8164  16EE  00DD               	movwf	??___fladd+3
  8165  16EF  0856               	movf	___fladd@a,w
  8166  16F0  00DE               	movwf	??___fladd+4
  8167  16F1  0857               	movf	___fladd@a+1,w
  8168  16F2  00DF               	movwf	??___fladd+5
  8169  16F3  0858               	movf	___fladd@a+2,w
  8170  16F4  00E0               	movwf	??___fladd+6
  8171  16F5  0859               	movf	___fladd@a+3,w
  8172  16F6  00E1               	movwf	??___fladd+7
  8173  16F7  0852               	movf	___fladd@b,w
  8174  16F8  02DE               	subwf	??___fladd+4,f
  8175  16F9  0853               	movf	___fladd@b+1,w
  8176  16FA  1C03               	skipc
  8177  16FB  0F53               	incfsz	___fladd@b+1,w
  8178  16FC  2EFE               	goto	u3541
  8179  16FD  2EFF               	goto	u3542
  8180  16FE                     u3541:	
  8181  16FE  02DF               	subwf	??___fladd+5,f
  8182  16FF                     u3542:	
  8183  16FF  0854               	movf	___fladd@b+2,w
  8184  1700  1C03               	skipc
  8185  1701  0F54               	incfsz	___fladd@b+2,w
  8186  1702  2F04               	goto	u3543
  8187  1703  2F05               	goto	u3544
  8188  1704                     u3543:	
  8189  1704  02E0               	subwf	??___fladd+6,f
  8190  1705                     u3544:	
  8191  1705  0855               	movf	___fladd@b+3,w
  8192  1706  1C03               	skipc
  8193  1707  0F55               	incfsz	___fladd@b+3,w
  8194  1708  2F0A               	goto	u3545
  8195  1709  2F0B               	goto	u3546
  8196  170A                     u3545:	
  8197  170A  02E1               	subwf	??___fladd+7,f
  8198  170B                     u3546:	
  8199  170B  085E               	movf	??___fladd+4,w
  8200  170C  07DA               	addwf	??___fladd,f
  8201  170D  085F               	movf	??___fladd+5,w
  8202  170E  1803               	skipnc
  8203  170F  0F5F               	incfsz	??___fladd+5,w
  8204  1710  2F12               	goto	u3550
  8205  1711  2F13               	goto	u3551
  8206  1712                     u3550:	
  8207  1712  07DB               	addwf	??___fladd+1,f
  8208  1713                     u3551:	
  8209  1713  0860               	movf	??___fladd+6,w
  8210  1714  1803               	skipnc
  8211  1715  0F60               	incfsz	??___fladd+6,w
  8212  1716  2F18               	goto	u3552
  8213  1717  2F19               	goto	u3553
  8214  1718                     u3552:	
  8215  1718  07DC               	addwf	??___fladd+2,f
  8216  1719                     u3553:	
  8217  1719  0861               	movf	??___fladd+7,w
  8218  171A  1803               	skipnc
  8219  171B  0A61               	incf	??___fladd+7,w
  8220  171C  07DD               	addwf	??___fladd+3,f
  8221  171D  085D               	movf	??___fladd+3,w
  8222  171E  00D5               	movwf	___fladd@b+3
  8223  171F  085C               	movf	??___fladd+2,w
  8224  1720  00D4               	movwf	___fladd@b+2
  8225  1721  085B               	movf	??___fladd+1,w
  8226  1722  00D3               	movwf	___fladd@b+1
  8227  1723  085A               	movf	??___fladd,w
  8228  1724  00D2               	movwf	___fladd@b
  8229  1725                     l2393:	
  8230  1725  3080               	movlw	128
  8231  1726  00DA               	movwf	??___fladd
  8232  1727  085A               	movf	??___fladd,w
  8233  1728  06E2               	xorwf	___fladd@signs,f
  8234  1729  09E5               	comf	___fladd@grs,f
  8235  172A  0AE5               	incf	___fladd@grs,f
  8236  172B                     l2395:	
  8237  172B  0865               	movf	___fladd@grs,w
  8238  172C  1D03               	btfss	3,2
  8239  172D  2F2F               	goto	u3561
  8240  172E  2F30               	goto	u3560
  8241  172F                     u3561:	
  8242  172F  2F4D               	goto	l611
  8243  1730                     u3560:	
  8244  1730                     l2397:	
  8245  1730  3001               	movlw	1
  8246  1731  07D2               	addwf	___fladd@b,f
  8247  1732  3000               	movlw	0
  8248  1733  1803               	skipnc
  8249  1734  3001               	movlw	1
  8250  1735  07D3               	addwf	___fladd@b+1,f
  8251  1736  3000               	movlw	0
  8252  1737  1803               	skipnc
  8253  1738  3001               	movlw	1
  8254  1739  07D4               	addwf	___fladd@b+2,f
  8255  173A  3000               	movlw	0
  8256  173B  1803               	skipnc
  8257  173C  3001               	movlw	1
  8258  173D  07D5               	addwf	___fladd@b+3,f
  8259  173E  2F4D               	goto	l611
  8260  173F                     l2399:	
  8261  173F  0856               	movf	___fladd@a,w
  8262  1740  02D2               	subwf	___fladd@b,f
  8263  1741  0857               	movf	___fladd@a+1,w
  8264  1742  1C03               	skipc
  8265  1743  0F57               	incfsz	___fladd@a+1,w
  8266  1744  02D3               	subwf	___fladd@b+1,f
  8267  1745  0858               	movf	___fladd@a+2,w
  8268  1746  1C03               	skipc
  8269  1747  0F58               	incfsz	___fladd@a+2,w
  8270  1748  02D4               	subwf	___fladd@b+2,f
  8271  1749  0859               	movf	___fladd@a+3,w
  8272  174A  1C03               	skipc
  8273  174B  0F59               	incfsz	___fladd@a+3,w
  8274  174C  02D5               	subwf	___fladd@b+3,f
  8275  174D                     l611:	
  8276  174D  0855               	movf	___fladd@b+3,w
  8277  174E  0454               	iorwf	___fladd@b+2,w
  8278  174F  0453               	iorwf	___fladd@b+1,w
  8279  1750  0452               	iorwf	___fladd@b,w
  8280  1751  1D03               	skipz
  8281  1752  2F54               	goto	u3571
  8282  1753  2F55               	goto	u3570
  8283  1754                     u3571:	
  8284  1754  2F81               	goto	l2421
  8285  1755                     u3570:	
  8286  1755                     l2401:	
  8287  1755  0865               	movf	___fladd@grs,w
  8288  1756  1D03               	btfss	3,2
  8289  1757  2F59               	goto	u3581
  8290  1758  2F5A               	goto	u3580
  8291  1759                     u3581:	
  8292  1759  2F81               	goto	l2421
  8293  175A                     u3580:	
  8294  175A                     l2403:	
  8295  175A  3000               	movlw	0
  8296  175B  00D5               	movwf	?___fladd+3
  8297  175C  3000               	movlw	0
  8298  175D  00D4               	movwf	?___fladd+2
  8299  175E  3000               	movlw	0
  8300  175F  00D3               	movwf	?___fladd+1
  8301  1760  3000               	movlw	0
  8302  1761  00D2               	movwf	?___fladd
  8303  1762  2FFF               	goto	l603
  8304  1763                     l2407:	
  8305  1763  3001               	movlw	1
  8306  1764  00DA               	movwf	??___fladd
  8307  1765                     u3595:	
  8308  1765  1003               	clrc
  8309  1766  0DD2               	rlf	___fladd@b,f
  8310  1767  0DD3               	rlf	___fladd@b+1,f
  8311  1768  0DD4               	rlf	___fladd@b+2,f
  8312  1769  0DD5               	rlf	___fladd@b+3,f
  8313  176A  0BDA               	decfsz	??___fladd,f
  8314  176B  2F65               	goto	u3595
  8315  176C                     l2409:	
  8316  176C  1FE5               	btfss	___fladd@grs,7
  8317  176D  2F6F               	goto	u3601
  8318  176E  2F70               	goto	u3600
  8319  176F                     u3601:	
  8320  176F  2F71               	goto	l615
  8321  1770                     u3600:	
  8322  1770                     l2411:	
  8323  1770  1452               	bsf	___fladd@b,0
  8324  1771                     l615:	
  8325  1771  1C65               	btfss	___fladd@grs,0
  8326  1772  2F74               	goto	u3611
  8327  1773  2F75               	goto	u3610
  8328  1774                     u3611:	
  8329  1774  2F78               	goto	l2415
  8330  1775                     u3610:	
  8331  1775                     l2413:	
  8332  1775  1403               	setc
  8333  1776  0DE5               	rlf	___fladd@grs,f
  8334  1777  2F7A               	goto	l2417
  8335  1778                     l2415:	
  8336  1778  1003               	clrc
  8337  1779  0DE5               	rlf	___fladd@grs,f
  8338  177A                     l2417:	
  8339  177A  0864               	movf	___fladd@bexp,w
  8340  177B  1903               	btfsc	3,2
  8341  177C  2F7E               	goto	u3621
  8342  177D  2F7F               	goto	u3620
  8343  177E                     u3621:	
  8344  177E  2F81               	goto	l2421
  8345  177F                     u3620:	
  8346  177F                     l2419:	
  8347  177F  3001               	movlw	1
  8348  1780  02E4               	subwf	___fladd@bexp,f
  8349  1781                     l2421:	
  8350  1781  1FD4               	btfss	___fladd@b+2,7
  8351  1782  2F84               	goto	u3631
  8352  1783  2F85               	goto	u3630
  8353  1784                     u3631:	
  8354  1784  2F63               	goto	l2407
  8355  1785                     u3630:	
  8356  1785                     l2423:	
  8357  1785  01E3               	clrf	___fladd@aexp
  8358  1786                     l2425:	
  8359  1786  1FE5               	btfss	___fladd@grs,7
  8360  1787  2F89               	goto	u3641
  8361  1788  2F8A               	goto	u3640
  8362  1789                     u3641:	
  8363  1789  2F98               	goto	l2433
  8364  178A                     u3640:	
  8365  178A                     l2427:	
  8366  178A  0865               	movf	___fladd@grs,w
  8367  178B  397F               	andlw	127
  8368  178C  1903               	btfsc	3,2
  8369  178D  2F8F               	goto	u3651
  8370  178E  2F90               	goto	u3650
  8371  178F                     u3651:	
  8372  178F  2F93               	goto	l621
  8373  1790                     u3650:	
  8374  1790                     l2429:	
  8375  1790  01E3               	clrf	___fladd@aexp
  8376  1791  0AE3               	incf	___fladd@aexp,f
  8377  1792  2F98               	goto	l2433
  8378  1793                     l621:	
  8379  1793  1C52               	btfss	___fladd@b,0
  8380  1794  2F96               	goto	u3661
  8381  1795  2F97               	goto	u3660
  8382  1796                     u3661:	
  8383  1796  2F98               	goto	l2433
  8384  1797                     u3660:	
  8385  1797  2F90               	goto	l2429
  8386  1798                     l2433:	
  8387  1798  0863               	movf	___fladd@aexp,w
  8388  1799  1903               	btfsc	3,2
  8389  179A  2F9C               	goto	u3671
  8390  179B  2F9D               	goto	u3670
  8391  179C                     u3671:	
  8392  179C  2FD1               	goto	l624
  8393  179D                     u3670:	
  8394  179D                     l2435:	
  8395  179D  3001               	movlw	1
  8396  179E  07D2               	addwf	___fladd@b,f
  8397  179F  3000               	movlw	0
  8398  17A0  1803               	skipnc
  8399  17A1  3001               	movlw	1
  8400  17A2  07D3               	addwf	___fladd@b+1,f
  8401  17A3  3000               	movlw	0
  8402  17A4  1803               	skipnc
  8403  17A5  3001               	movlw	1
  8404  17A6  07D4               	addwf	___fladd@b+2,f
  8405  17A7  3000               	movlw	0
  8406  17A8  1803               	skipnc
  8407  17A9  3001               	movlw	1
  8408  17AA  07D5               	addwf	___fladd@b+3,f
  8409  17AB                     l2437:	
  8410  17AB  1C55               	btfss	___fladd@b+3,0
  8411  17AC  2FAE               	goto	u3681
  8412  17AD  2FAF               	goto	u3680
  8413  17AE                     u3681:	
  8414  17AE  2FD1               	goto	l624
  8415  17AF                     u3680:	
  8416  17AF                     l2439:	
  8417  17AF  0852               	movf	___fladd@b,w
  8418  17B0  00DA               	movwf	??___fladd
  8419  17B1  0853               	movf	___fladd@b+1,w
  8420  17B2  00DB               	movwf	??___fladd+1
  8421  17B3  0854               	movf	___fladd@b+2,w
  8422  17B4  00DC               	movwf	??___fladd+2
  8423  17B5  0855               	movf	___fladd@b+3,w
  8424  17B6  00DD               	movwf	??___fladd+3
  8425  17B7  3001               	movlw	1
  8426  17B8  00DE               	movwf	??___fladd+4
  8427  17B9                     u3695:	
  8428  17B9  0D5D               	rlf	??___fladd+3,w
  8429  17BA  0CDD               	rrf	??___fladd+3,f
  8430  17BB  0CDC               	rrf	??___fladd+2,f
  8431  17BC  0CDB               	rrf	??___fladd+1,f
  8432  17BD  0CDA               	rrf	??___fladd,f
  8433  17BE                     u3690:	
  8434  17BE  0BDE               	decfsz	??___fladd+4,f
  8435  17BF  2FB9               	goto	u3695
  8436  17C0  085D               	movf	??___fladd+3,w
  8437  17C1  00D5               	movwf	___fladd@b+3
  8438  17C2  085C               	movf	??___fladd+2,w
  8439  17C3  00D4               	movwf	___fladd@b+2
  8440  17C4  085B               	movf	??___fladd+1,w
  8441  17C5  00D3               	movwf	___fladd@b+1
  8442  17C6  085A               	movf	??___fladd,w
  8443  17C7  00D2               	movwf	___fladd@b
  8444  17C8  0A64               	incf	___fladd@bexp,w
  8445  17C9  1903               	btfsc	3,2
  8446  17CA  2FCC               	goto	u3701
  8447  17CB  2FCD               	goto	u3700
  8448  17CC                     u3701:	
  8449  17CC  2FD1               	goto	l624
  8450  17CD                     u3700:	
  8451  17CD                     l2441:	
  8452  17CD  3001               	movlw	1
  8453  17CE  00DA               	movwf	??___fladd
  8454  17CF  085A               	movf	??___fladd,w
  8455  17D0  07E4               	addwf	___fladd@bexp,f
  8456  17D1                     l624:	
  8457  17D1  0A64               	incf	___fladd@bexp,w
  8458  17D2  1903               	btfsc	3,2
  8459  17D3  2FD5               	goto	u3711
  8460  17D4  2FD6               	goto	u3710
  8461  17D5                     u3711:	
  8462  17D5  2FDB               	goto	l2445
  8463  17D6                     u3710:	
  8464  17D6                     l2443:	
  8465  17D6  0864               	movf	___fladd@bexp,w
  8466  17D7  1D03               	btfss	3,2
  8467  17D8  2FDA               	goto	u3721
  8468  17D9  2FDB               	goto	u3720
  8469  17DA                     u3721:	
  8470  17DA  2FE9               	goto	l2451
  8471  17DB                     u3720:	
  8472  17DB                     l2445:	
  8473  17DB  3000               	movlw	0
  8474  17DC  00D5               	movwf	___fladd@b+3
  8475  17DD  3000               	movlw	0
  8476  17DE  00D4               	movwf	___fladd@b+2
  8477  17DF  3000               	movlw	0
  8478  17E0  00D3               	movwf	___fladd@b+1
  8479  17E1  3000               	movlw	0
  8480  17E2  00D2               	movwf	___fladd@b
  8481  17E3                     l2447:	
  8482  17E3  0864               	movf	___fladd@bexp,w
  8483  17E4  1D03               	btfss	3,2
  8484  17E5  2FE7               	goto	u3731
  8485  17E6  2FE8               	goto	u3730
  8486  17E7                     u3731:	
  8487  17E7  2FE9               	goto	l2451
  8488  17E8                     u3730:	
  8489  17E8                     l2449:	
  8490  17E8  01E2               	clrf	___fladd@signs
  8491  17E9                     l2451:	
  8492  17E9  1C64               	btfss	___fladd@bexp,0
  8493  17EA  2FEC               	goto	u3741
  8494  17EB  2FED               	goto	u3740
  8495  17EC                     u3741:	
  8496  17EC  2FEF               	goto	l2455
  8497  17ED                     u3740:	
  8498  17ED                     l2453:	
  8499  17ED  17D4               	bsf	___fladd@b+2,7
  8500  17EE  2FF3               	goto	l632
  8501  17EF                     l2455:	
  8502  17EF  307F               	movlw	127
  8503  17F0  00DA               	movwf	??___fladd
  8504  17F1  085A               	movf	??___fladd,w
  8505  17F2  05D4               	andwf	___fladd@b+2,f
  8506  17F3                     l632:	
  8507  17F3  0864               	movf	___fladd@bexp,w
  8508  17F4  00DA               	movwf	??___fladd
  8509  17F5  1003               	clrc
  8510  17F6  0C5A               	rrf	??___fladd,w
  8511  17F7  00DB               	movwf	??___fladd+1
  8512  17F8  085B               	movf	??___fladd+1,w
  8513  17F9  00D5               	movwf	___fladd@b+3
  8514  17FA                     l2457:	
  8515  17FA  1FE2               	btfss	___fladd@signs,7
  8516  17FB  2FFD               	goto	u3751
  8517  17FC  2FFE               	goto	u3750
  8518  17FD                     u3751:	
  8519  17FD  2FFF               	goto	l633
  8520  17FE                     u3750:	
  8521  17FE                     l2459:	
  8522  17FE  17D5               	bsf	___fladd@b+3,7
  8523  17FF                     l633:	
  8524  17FF                     l603:	
  8525  17FF  0008               	return
  8526  1800                     __end_of___fladd:	
  8527                           
  8528                           	psect	text21
  8529  1B99                     __ptext21:	
  8530 ;; *************** function ___flneg *****************
  8531 ;; Defined at:
  8532 ;;		line 15 in file "C:\Program Files (x86)\Microchip\xc8\v2.10\pic\sources\c90\common\flneg.c"
  8533 ;; Parameters:    Size  Location     Type
  8534 ;;  f1              4    0[COMMON] unsigned char 
  8535 ;; Auto vars:     Size  Location     Type
  8536 ;;		None
  8537 ;; Return value:  Size  Location     Type
  8538 ;;                  4    0[COMMON] unsigned char 
  8539 ;; Registers used:
  8540 ;;		wreg
  8541 ;; Tracked objects:
  8542 ;;		On entry : 0/0
  8543 ;;		On exit  : 0/0
  8544 ;;		Unchanged: 0/0
  8545 ;; Data sizes:     COMMON   BANK0   BANK1   BANK3   BANK2
  8546 ;;      Params:         4       0       0       0       0
  8547 ;;      Locals:         0       0       0       0       0
  8548 ;;      Temps:          0       0       0       0       0
  8549 ;;      Totals:         4       0       0       0       0
  8550 ;;Total ram usage:        4 bytes
  8551 ;; Hardware stack levels used:    1
  8552 ;; This function calls:
  8553 ;;		Nothing
  8554 ;; This function is called by:
  8555 ;;		_sprintf
  8556 ;; This function uses a non-reentrant model
  8557 ;;
  8558                           
  8559                           
  8560                           ;psect for function ___flneg
  8561  1B99                     ___flneg:	
  8562  1B99                     l2859:	
  8563                           ;incstack = 0
  8564                           ; Regs used in ___flneg: [wreg]
  8565                           
  8566  1B99  0873               	movf	___flneg@f1+3,w
  8567  1B9A  0472               	iorwf	___flneg@f1+2,w
  8568  1B9B  0471               	iorwf	___flneg@f1+1,w
  8569  1B9C  0470               	iorwf	___flneg@f1,w
  8570  1B9D  1903               	skipnz
  8571  1B9E  2BA0               	goto	u4861
  8572  1B9F  2BA1               	goto	u4860
  8573  1BA0                     u4861:	
  8574  1BA0  2BA3               	goto	l2863
  8575  1BA1                     u4860:	
  8576  1BA1                     l2861:	
  8577  1BA1  3080               	movlw	128
  8578  1BA2  06F3               	xorwf	___flneg@f1+3,f
  8579  1BA3                     l2863:	
  8580  1BA3                     l462:	
  8581  1BA3  0008               	return
  8582  1BA4                     __end_of___flneg:	
  8583                           
  8584                           	psect	text22
  8585  10C2                     __ptext22:	
  8586 ;; *************** function ___flge *****************
  8587 ;; Defined at:
  8588 ;;		line 4 in file "C:\Program Files (x86)\Microchip\xc8\v2.10\pic\sources\c90\common\flge.c"
  8589 ;; Parameters:    Size  Location     Type
  8590 ;;  ff1             4    0[COMMON] unsigned char 
  8591 ;;  ff2             4    4[COMMON] unsigned char 
  8592 ;; Auto vars:     Size  Location     Type
  8593 ;;		None
  8594 ;; Return value:  Size  Location     Type
  8595 ;;		None               void
  8596 ;; Registers used:
  8597 ;;		wreg, status,2, status,0
  8598 ;; Tracked objects:
  8599 ;;		On entry : 0/0
  8600 ;;		On exit  : 0/0
  8601 ;;		Unchanged: 0/0
  8602 ;; Data sizes:     COMMON   BANK0   BANK1   BANK3   BANK2
  8603 ;;      Params:         8       0       0       0       0
  8604 ;;      Locals:         0       0       0       0       0
  8605 ;;      Temps:          4       0       0       0       0
  8606 ;;      Totals:        12       0       0       0       0
  8607 ;;Total ram usage:       12 bytes
  8608 ;; Hardware stack levels used:    1
  8609 ;; This function calls:
  8610 ;;		Nothing
  8611 ;; This function is called by:
  8612 ;;		_sprintf
  8613 ;; This function uses a non-reentrant model
  8614 ;;
  8615                           
  8616                           
  8617                           ;psect for function ___flge
  8618  10C2                     ___flge:	
  8619  10C2                     l2839:	
  8620                           ;incstack = 0
  8621                           ; Regs used in ___flge: [wreg+status,2+status,0]
  8622                           
  8623  10C2  3000               	movlw	0
  8624  10C3  0570               	andwf	___flge@ff1,w
  8625  10C4  00F8               	movwf	??___flge
  8626  10C5  3000               	movlw	0
  8627  10C6  0571               	andwf	___flge@ff1+1,w
  8628  10C7  00F9               	movwf	??___flge+1
  8629  10C8  3080               	movlw	128
  8630  10C9  0572               	andwf	___flge@ff1+2,w
  8631  10CA  00FA               	movwf	??___flge+2
  8632  10CB  307F               	movlw	127
  8633  10CC  0573               	andwf	___flge@ff1+3,w
  8634  10CD  00FB               	movwf	??___flge+3
  8635  10CE  087B               	movf	??___flge+3,w
  8636  10CF  047A               	iorwf	??___flge+2,w
  8637  10D0  0479               	iorwf	??___flge+1,w
  8638  10D1  0478               	iorwf	??___flge,w
  8639  10D2  1D03               	skipz
  8640  10D3  28D5               	goto	u4791
  8641  10D4  28D6               	goto	u4790
  8642  10D5                     u4791:	
  8643  10D5  28DE               	goto	l454
  8644  10D6                     u4790:	
  8645  10D6                     l2841:	
  8646  10D6  3000               	movlw	0
  8647  10D7  00F3               	movwf	___flge@ff1+3
  8648  10D8  3000               	movlw	0
  8649  10D9  00F2               	movwf	___flge@ff1+2
  8650  10DA  3000               	movlw	0
  8651  10DB  00F1               	movwf	___flge@ff1+1
  8652  10DC  3000               	movlw	0
  8653  10DD  00F0               	movwf	___flge@ff1
  8654  10DE                     l454:	
  8655  10DE  3000               	movlw	0
  8656  10DF  0574               	andwf	___flge@ff2,w
  8657  10E0  00F8               	movwf	??___flge
  8658  10E1  3000               	movlw	0
  8659  10E2  0575               	andwf	___flge@ff2+1,w
  8660  10E3  00F9               	movwf	??___flge+1
  8661  10E4  3080               	movlw	128
  8662  10E5  0576               	andwf	___flge@ff2+2,w
  8663  10E6  00FA               	movwf	??___flge+2
  8664  10E7  307F               	movlw	127
  8665  10E8  0577               	andwf	___flge@ff2+3,w
  8666  10E9  00FB               	movwf	??___flge+3
  8667  10EA  087B               	movf	??___flge+3,w
  8668  10EB  047A               	iorwf	??___flge+2,w
  8669  10EC  0479               	iorwf	??___flge+1,w
  8670  10ED  0478               	iorwf	??___flge,w
  8671  10EE  1D03               	skipz
  8672  10EF  28F1               	goto	u4801
  8673  10F0  28F2               	goto	u4800
  8674  10F1                     u4801:	
  8675  10F1  28FA               	goto	l2845
  8676  10F2                     u4800:	
  8677  10F2                     l2843:	
  8678  10F2  3000               	movlw	0
  8679  10F3  00F7               	movwf	___flge@ff2+3
  8680  10F4  3000               	movlw	0
  8681  10F5  00F6               	movwf	___flge@ff2+2
  8682  10F6  3000               	movlw	0
  8683  10F7  00F5               	movwf	___flge@ff2+1
  8684  10F8  3000               	movlw	0
  8685  10F9  00F4               	movwf	___flge@ff2
  8686  10FA                     l2845:	
  8687  10FA  1FF3               	btfss	___flge@ff1+3,7
  8688  10FB  28FD               	goto	u4811
  8689  10FC  28FE               	goto	u4810
  8690  10FD                     u4811:	
  8691  10FD  2922               	goto	l2849
  8692  10FE                     u4810:	
  8693  10FE                     l2847:	
  8694  10FE  3000               	movlw	0
  8695  10FF  00F8               	movwf	??___flge
  8696  1100  3000               	movlw	0
  8697  1101  00F9               	movwf	??___flge+1
  8698  1102  3000               	movlw	0
  8699  1103  00FA               	movwf	??___flge+2
  8700  1104  3080               	movlw	128
  8701  1105  00FB               	movwf	??___flge+3
  8702  1106  0870               	movf	___flge@ff1,w
  8703  1107  02F8               	subwf	??___flge,f
  8704  1108  0871               	movf	___flge@ff1+1,w
  8705  1109  1C03               	skipc
  8706  110A  0F71               	incfsz	___flge@ff1+1,w
  8707  110B  290D               	goto	u4821
  8708  110C  290E               	goto	u4822
  8709  110D                     u4821:	
  8710  110D  02F9               	subwf	??___flge+1,f
  8711  110E                     u4822:	
  8712  110E  0872               	movf	___flge@ff1+2,w
  8713  110F  1C03               	skipc
  8714  1110  0F72               	incfsz	___flge@ff1+2,w
  8715  1111  2913               	goto	u4823
  8716  1112  2914               	goto	u4824
  8717  1113                     u4823:	
  8718  1113  02FA               	subwf	??___flge+2,f
  8719  1114                     u4824:	
  8720  1114  0873               	movf	___flge@ff1+3,w
  8721  1115  1C03               	skipc
  8722  1116  0F73               	incfsz	___flge@ff1+3,w
  8723  1117  2919               	goto	u4825
  8724  1118  291A               	goto	u4826
  8725  1119                     u4825:	
  8726  1119  02FB               	subwf	??___flge+3,f
  8727  111A                     u4826:	
  8728  111A  087B               	movf	??___flge+3,w
  8729  111B  00F3               	movwf	___flge@ff1+3
  8730  111C  087A               	movf	??___flge+2,w
  8731  111D  00F2               	movwf	___flge@ff1+2
  8732  111E  0879               	movf	??___flge+1,w
  8733  111F  00F1               	movwf	___flge@ff1+1
  8734  1120  0878               	movf	??___flge,w
  8735  1121  00F0               	movwf	___flge@ff1
  8736  1122                     l2849:	
  8737  1122  1FF7               	btfss	___flge@ff2+3,7
  8738  1123  2925               	goto	u4831
  8739  1124  2926               	goto	u4830
  8740  1125                     u4831:	
  8741  1125  294A               	goto	l457
  8742  1126                     u4830:	
  8743  1126                     l2851:	
  8744  1126  3000               	movlw	0
  8745  1127  00F8               	movwf	??___flge
  8746  1128  3000               	movlw	0
  8747  1129  00F9               	movwf	??___flge+1
  8748  112A  3000               	movlw	0
  8749  112B  00FA               	movwf	??___flge+2
  8750  112C  3080               	movlw	128
  8751  112D  00FB               	movwf	??___flge+3
  8752  112E  0874               	movf	___flge@ff2,w
  8753  112F  02F8               	subwf	??___flge,f
  8754  1130  0875               	movf	___flge@ff2+1,w
  8755  1131  1C03               	skipc
  8756  1132  0F75               	incfsz	___flge@ff2+1,w
  8757  1133  2935               	goto	u4841
  8758  1134  2936               	goto	u4842
  8759  1135                     u4841:	
  8760  1135  02F9               	subwf	??___flge+1,f
  8761  1136                     u4842:	
  8762  1136  0876               	movf	___flge@ff2+2,w
  8763  1137  1C03               	skipc
  8764  1138  0F76               	incfsz	___flge@ff2+2,w
  8765  1139  293B               	goto	u4843
  8766  113A  293C               	goto	u4844
  8767  113B                     u4843:	
  8768  113B  02FA               	subwf	??___flge+2,f
  8769  113C                     u4844:	
  8770  113C  0877               	movf	___flge@ff2+3,w
  8771  113D  1C03               	skipc
  8772  113E  0F77               	incfsz	___flge@ff2+3,w
  8773  113F  2941               	goto	u4845
  8774  1140  2942               	goto	u4846
  8775  1141                     u4845:	
  8776  1141  02FB               	subwf	??___flge+3,f
  8777  1142                     u4846:	
  8778  1142  087B               	movf	??___flge+3,w
  8779  1143  00F7               	movwf	___flge@ff2+3
  8780  1144  087A               	movf	??___flge+2,w
  8781  1145  00F6               	movwf	___flge@ff2+2
  8782  1146  0879               	movf	??___flge+1,w
  8783  1147  00F5               	movwf	___flge@ff2+1
  8784  1148  0878               	movf	??___flge,w
  8785  1149  00F4               	movwf	___flge@ff2
  8786  114A                     l457:	
  8787  114A  3080               	movlw	128
  8788  114B  06F3               	xorwf	___flge@ff1+3,f
  8789  114C  3080               	movlw	128
  8790  114D  06F7               	xorwf	___flge@ff2+3,f
  8791  114E  0877               	movf	___flge@ff2+3,w
  8792  114F  0273               	subwf	___flge@ff1+3,w
  8793  1150  1D03               	skipz
  8794  1151  295C               	goto	u4855
  8795  1152  0876               	movf	___flge@ff2+2,w
  8796  1153  0272               	subwf	___flge@ff1+2,w
  8797  1154  1D03               	skipz
  8798  1155  295C               	goto	u4855
  8799  1156  0875               	movf	___flge@ff2+1,w
  8800  1157  0271               	subwf	___flge@ff1+1,w
  8801  1158  1D03               	skipz
  8802  1159  295C               	goto	u4855
  8803  115A  0874               	movf	___flge@ff2,w
  8804  115B  0270               	subwf	___flge@ff1,w
  8805  115C                     u4855:	
  8806  115C  1803               	skipnc
  8807  115D  295F               	goto	u4851
  8808  115E  2960               	goto	u4850
  8809  115F                     u4851:	
  8810  115F  2962               	goto	l2855
  8811  1160                     u4850:	
  8812  1160                     l2853:	
  8813  1160  1003               	clrc
  8814  1161  2963               	goto	l458
  8815  1162                     l2855:	
  8816  1162  1403               	setc
  8817  1163                     l458:	
  8818  1163  0008               	return
  8819  1164                     __end_of___flge:	
  8820                           
  8821                           	psect	text23
  8822  1D68                     __ptext23:	
  8823 ;; *************** function ___fleq *****************
  8824 ;; Defined at:
  8825 ;;		line 4 in file "C:\Program Files (x86)\Microchip\xc8\v2.10\pic\sources\c90\common\fleq.c"
  8826 ;; Parameters:    Size  Location     Type
  8827 ;;  ff1             4    0[COMMON] unsigned char 
  8828 ;;  ff2             4    4[COMMON] unsigned char 
  8829 ;; Auto vars:     Size  Location     Type
  8830 ;;		None
  8831 ;; Return value:  Size  Location     Type
  8832 ;;		None               void
  8833 ;; Registers used:
  8834 ;;		wreg, status,2, status,0
  8835 ;; Tracked objects:
  8836 ;;		On entry : 0/0
  8837 ;;		On exit  : 0/0
  8838 ;;		Unchanged: 0/0
  8839 ;; Data sizes:     COMMON   BANK0   BANK1   BANK3   BANK2
  8840 ;;      Params:         8       0       0       0       0
  8841 ;;      Locals:         0       0       0       0       0
  8842 ;;      Temps:          4       0       0       0       0
  8843 ;;      Totals:        12       0       0       0       0
  8844 ;;Total ram usage:       12 bytes
  8845 ;; Hardware stack levels used:    1
  8846 ;; This function calls:
  8847 ;;		Nothing
  8848 ;; This function is called by:
  8849 ;;		_sprintf
  8850 ;; This function uses a non-reentrant model
  8851 ;;
  8852                           
  8853                           
  8854                           ;psect for function ___fleq
  8855  1D68                     ___fleq:	
  8856  1D68                     l2827:	
  8857                           ;incstack = 0
  8858                           ; Regs used in ___fleq: [wreg+status,2+status,0]
  8859                           
  8860  1D68  3000               	movlw	0
  8861  1D69  0570               	andwf	___fleq@ff1,w
  8862  1D6A  00F8               	movwf	??___fleq
  8863  1D6B  3000               	movlw	0
  8864  1D6C  0571               	andwf	___fleq@ff1+1,w
  8865  1D6D  00F9               	movwf	??___fleq+1
  8866  1D6E  3080               	movlw	128
  8867  1D6F  0572               	andwf	___fleq@ff1+2,w
  8868  1D70  00FA               	movwf	??___fleq+2
  8869  1D71  307F               	movlw	127
  8870  1D72  0573               	andwf	___fleq@ff1+3,w
  8871  1D73  00FB               	movwf	??___fleq+3
  8872  1D74  087B               	movf	??___fleq+3,w
  8873  1D75  047A               	iorwf	??___fleq+2,w
  8874  1D76  0479               	iorwf	??___fleq+1,w
  8875  1D77  0478               	iorwf	??___fleq,w
  8876  1D78  1D03               	skipz
  8877  1D79  2D7B               	goto	u4761
  8878  1D7A  2D7C               	goto	u4760
  8879  1D7B                     u4761:	
  8880  1D7B  2D84               	goto	l449
  8881  1D7C                     u4760:	
  8882  1D7C                     l2829:	
  8883  1D7C  3000               	movlw	0
  8884  1D7D  00F3               	movwf	___fleq@ff1+3
  8885  1D7E  3000               	movlw	0
  8886  1D7F  00F2               	movwf	___fleq@ff1+2
  8887  1D80  3000               	movlw	0
  8888  1D81  00F1               	movwf	___fleq@ff1+1
  8889  1D82  3000               	movlw	0
  8890  1D83  00F0               	movwf	___fleq@ff1
  8891  1D84                     l449:	
  8892  1D84  3000               	movlw	0
  8893  1D85  0574               	andwf	___fleq@ff2,w
  8894  1D86  00F8               	movwf	??___fleq
  8895  1D87  3000               	movlw	0
  8896  1D88  0575               	andwf	___fleq@ff2+1,w
  8897  1D89  00F9               	movwf	??___fleq+1
  8898  1D8A  3080               	movlw	128
  8899  1D8B  0576               	andwf	___fleq@ff2+2,w
  8900  1D8C  00FA               	movwf	??___fleq+2
  8901  1D8D  307F               	movlw	127
  8902  1D8E  0577               	andwf	___fleq@ff2+3,w
  8903  1D8F  00FB               	movwf	??___fleq+3
  8904  1D90  087B               	movf	??___fleq+3,w
  8905  1D91  047A               	iorwf	??___fleq+2,w
  8906  1D92  0479               	iorwf	??___fleq+1,w
  8907  1D93  0478               	iorwf	??___fleq,w
  8908  1D94  1D03               	skipz
  8909  1D95  2D97               	goto	u4771
  8910  1D96  2D98               	goto	u4770
  8911  1D97                     u4771:	
  8912  1D97  2DA0               	goto	l450
  8913  1D98                     u4770:	
  8914  1D98                     l2831:	
  8915  1D98  3000               	movlw	0
  8916  1D99  00F7               	movwf	___fleq@ff2+3
  8917  1D9A  3000               	movlw	0
  8918  1D9B  00F6               	movwf	___fleq@ff2+2
  8919  1D9C  3000               	movlw	0
  8920  1D9D  00F5               	movwf	___fleq@ff2+1
  8921  1D9E  3000               	movlw	0
  8922  1D9F  00F4               	movwf	___fleq@ff2
  8923  1DA0                     l450:	
  8924  1DA0  0877               	movf	___fleq@ff2+3,w
  8925  1DA1  0673               	xorwf	___fleq@ff1+3,w
  8926  1DA2  1D03               	skipz
  8927  1DA3  2DAE               	goto	u4785
  8928  1DA4  0876               	movf	___fleq@ff2+2,w
  8929  1DA5  0672               	xorwf	___fleq@ff1+2,w
  8930  1DA6  1D03               	skipz
  8931  1DA7  2DAE               	goto	u4785
  8932  1DA8  0875               	movf	___fleq@ff2+1,w
  8933  1DA9  0671               	xorwf	___fleq@ff1+1,w
  8934  1DAA  1D03               	skipz
  8935  1DAB  2DAE               	goto	u4785
  8936  1DAC  0874               	movf	___fleq@ff2,w
  8937  1DAD  0670               	xorwf	___fleq@ff1,w
  8938  1DAE                     u4785:	
  8939  1DAE  1903               	skipnz
  8940  1DAF  2DB1               	goto	u4781
  8941  1DB0  2DB2               	goto	u4780
  8942  1DB1                     u4781:	
  8943  1DB1  2DB4               	goto	l2835
  8944  1DB2                     u4780:	
  8945  1DB2                     l2833:	
  8946  1DB2  1003               	clrc
  8947  1DB3  2DB5               	goto	l451
  8948  1DB4                     l2835:	
  8949  1DB4  1403               	setc
  8950  1DB5                     l451:	
  8951  1DB5  0008               	return
  8952  1DB6                     __end_of___fleq:	
  8953                           
  8954                           	psect	text24
  8955  139B                     __ptext24:	
  8956 ;; *************** function ___fldiv *****************
  8957 ;; Defined at:
  8958 ;;		line 8 in file "C:\Program Files (x86)\Microchip\xc8\v2.10\pic\sources\c90\common\sprcdiv.c"
  8959 ;; Parameters:    Size  Location     Type
  8960 ;;  a               4    6[BANK0 ] unsigned char 
  8961 ;;  b               4   10[BANK0 ] unsigned char 
  8962 ;; Auto vars:     Size  Location     Type
  8963 ;;  grs             4   26[BANK0 ] unsigned long 
  8964 ;;  rem             4   19[BANK0 ] unsigned long 
  8965 ;;  new_exp         2   24[BANK0 ] int 
  8966 ;;  aexp            1   31[BANK0 ] unsigned char 
  8967 ;;  bexp            1   30[BANK0 ] unsigned char 
  8968 ;;  sign            1   23[BANK0 ] unsigned char 
  8969 ;; Return value:  Size  Location     Type
  8970 ;;                  4    6[BANK0 ] unsigned char 
  8971 ;; Registers used:
  8972 ;;		wreg, status,2, status,0, btemp+1
  8973 ;; Tracked objects:
  8974 ;;		On entry : 0/0
  8975 ;;		On exit  : 0/0
  8976 ;;		Unchanged: 0/0
  8977 ;; Data sizes:     COMMON   BANK0   BANK1   BANK3   BANK2
  8978 ;;      Params:         0       8       0       0       0
  8979 ;;      Locals:         0      13       0       0       0
  8980 ;;      Temps:          0       5       0       0       0
  8981 ;;      Totals:         0      26       0       0       0
  8982 ;;Total ram usage:       26 bytes
  8983 ;; Hardware stack levels used:    1
  8984 ;; This function calls:
  8985 ;;		Nothing
  8986 ;; This function is called by:
  8987 ;;		_ADC_Read
  8988 ;; This function uses a non-reentrant model
  8989 ;;
  8990                           
  8991                           
  8992                           ;psect for function ___fldiv
  8993  139B                     ___fldiv:	
  8994  139B                     l3175:	
  8995                           ;incstack = 0
  8996                           ; Regs used in ___fldiv: [wreg+status,2+status,0+btemp+1]
  8997                           
  8998  139B  1283               	bcf	3,5	;RP0=0, select bank0
  8999  139C  1303               	bcf	3,6	;RP1=0, select bank0
  9000  139D  082D               	movf	___fldiv@b+3,w
  9001  139E  3980               	andlw	128
  9002  139F  00AE               	movwf	??___fldiv
  9003  13A0  082E               	movf	??___fldiv,w
  9004  13A1  00B7               	movwf	___fldiv@sign
  9005  13A2                     l3177:	
  9006  13A2  082D               	movf	___fldiv@b+3,w
  9007  13A3  00AE               	movwf	??___fldiv
  9008  13A4  072E               	addwf	??___fldiv,w
  9009  13A5  00AF               	movwf	??___fldiv+1
  9010  13A6  082F               	movf	??___fldiv+1,w
  9011  13A7  00BE               	movwf	___fldiv@bexp
  9012  13A8                     l3179:	
  9013  13A8  1FAC               	btfss	___fldiv@b+2,7
  9014  13A9  2BAB               	goto	u5511
  9015  13AA  2BAC               	goto	u5510
  9016  13AB                     u5511:	
  9017  13AB  2BAD               	goto	l3183
  9018  13AC                     u5510:	
  9019  13AC                     l3181:	
  9020  13AC  143E               	bsf	___fldiv@bexp,0
  9021  13AD                     l3183:	
  9022  13AD  083E               	movf	___fldiv@bexp,w
  9023  13AE  1903               	btfsc	3,2
  9024  13AF  2BB1               	goto	u5521
  9025  13B0  2BB2               	goto	u5520
  9026  13B1                     u5521:	
  9027  13B1  2BC2               	goto	l3193
  9028  13B2                     u5520:	
  9029  13B2                     l3185:	
  9030  13B2  0A3E               	incf	___fldiv@bexp,w
  9031  13B3  1D03               	btfss	3,2
  9032  13B4  2BB6               	goto	u5531
  9033  13B5  2BB7               	goto	u5530
  9034  13B6                     u5531:	
  9035  13B6  2BBF               	goto	l3189
  9036  13B7                     u5530:	
  9037  13B7                     l3187:	
  9038  13B7  3000               	movlw	0
  9039  13B8  00AD               	movwf	___fldiv@b+3
  9040  13B9  3000               	movlw	0
  9041  13BA  00AC               	movwf	___fldiv@b+2
  9042  13BB  3000               	movlw	0
  9043  13BC  00AB               	movwf	___fldiv@b+1
  9044  13BD  3000               	movlw	0
  9045  13BE  00AA               	movwf	___fldiv@b
  9046  13BF                     l3189:	
  9047  13BF  17AC               	bsf	___fldiv@b+2,7
  9048  13C0                     l3191:	
  9049  13C0  01AD               	clrf	___fldiv@b+3
  9050  13C1  2BCA               	goto	l3195
  9051  13C2                     l3193:	
  9052  13C2  3000               	movlw	0
  9053  13C3  00AD               	movwf	___fldiv@b+3
  9054  13C4  3000               	movlw	0
  9055  13C5  00AC               	movwf	___fldiv@b+2
  9056  13C6  3000               	movlw	0
  9057  13C7  00AB               	movwf	___fldiv@b+1
  9058  13C8  3000               	movlw	0
  9059  13C9  00AA               	movwf	___fldiv@b
  9060  13CA                     l3195:	
  9061  13CA  0829               	movf	___fldiv@a+3,w
  9062  13CB  3980               	andlw	128
  9063  13CC  00AE               	movwf	??___fldiv
  9064  13CD  082E               	movf	??___fldiv,w
  9065  13CE  06B7               	xorwf	___fldiv@sign,f
  9066  13CF                     l3197:	
  9067  13CF  0829               	movf	___fldiv@a+3,w
  9068  13D0  00AE               	movwf	??___fldiv
  9069  13D1  072E               	addwf	??___fldiv,w
  9070  13D2  00AF               	movwf	??___fldiv+1
  9071  13D3  082F               	movf	??___fldiv+1,w
  9072  13D4  00BF               	movwf	___fldiv@aexp
  9073  13D5                     l3199:	
  9074  13D5  1FA8               	btfss	___fldiv@a+2,7
  9075  13D6  2BD8               	goto	u5541
  9076  13D7  2BD9               	goto	u5540
  9077  13D8                     u5541:	
  9078  13D8  2BDA               	goto	l3203
  9079  13D9                     u5540:	
  9080  13D9                     l3201:	
  9081  13D9  143F               	bsf	___fldiv@aexp,0
  9082  13DA                     l3203:	
  9083  13DA  083F               	movf	___fldiv@aexp,w
  9084  13DB  1903               	btfsc	3,2
  9085  13DC  2BDE               	goto	u5551
  9086  13DD  2BDF               	goto	u5550
  9087  13DE                     u5551:	
  9088  13DE  2BEF               	goto	l3213
  9089  13DF                     u5550:	
  9090  13DF                     l3205:	
  9091  13DF  0A3F               	incf	___fldiv@aexp,w
  9092  13E0  1D03               	btfss	3,2
  9093  13E1  2BE3               	goto	u5561
  9094  13E2  2BE4               	goto	u5560
  9095  13E3                     u5561:	
  9096  13E3  2BEC               	goto	l3209
  9097  13E4                     u5560:	
  9098  13E4                     l3207:	
  9099  13E4  3000               	movlw	0
  9100  13E5  00A9               	movwf	___fldiv@a+3
  9101  13E6  3000               	movlw	0
  9102  13E7  00A8               	movwf	___fldiv@a+2
  9103  13E8  3000               	movlw	0
  9104  13E9  00A7               	movwf	___fldiv@a+1
  9105  13EA  3000               	movlw	0
  9106  13EB  00A6               	movwf	___fldiv@a
  9107  13EC                     l3209:	
  9108  13EC  17A8               	bsf	___fldiv@a+2,7
  9109  13ED                     l3211:	
  9110  13ED  01A9               	clrf	___fldiv@a+3
  9111  13EE  2BF7               	goto	l646
  9112  13EF                     l3213:	
  9113  13EF  3000               	movlw	0
  9114  13F0  00A9               	movwf	___fldiv@a+3
  9115  13F1  3000               	movlw	0
  9116  13F2  00A8               	movwf	___fldiv@a+2
  9117  13F3  3000               	movlw	0
  9118  13F4  00A7               	movwf	___fldiv@a+1
  9119  13F5  3000               	movlw	0
  9120  13F6  00A6               	movwf	___fldiv@a
  9121  13F7                     l646:	
  9122  13F7  0829               	movf	___fldiv@a+3,w
  9123  13F8  0428               	iorwf	___fldiv@a+2,w
  9124  13F9  0427               	iorwf	___fldiv@a+1,w
  9125  13FA  0426               	iorwf	___fldiv@a,w
  9126  13FB  1D03               	skipz
  9127  13FC  2BFE               	goto	u5571
  9128  13FD  2BFF               	goto	u5570
  9129  13FE                     u5571:	
  9130  13FE  2C18               	goto	l3223
  9131  13FF                     u5570:	
  9132  13FF                     l3215:	
  9133  13FF  3000               	movlw	0
  9134  1400  00AD               	movwf	___fldiv@b+3
  9135  1401  3000               	movlw	0
  9136  1402  00AC               	movwf	___fldiv@b+2
  9137  1403  3000               	movlw	0
  9138  1404  00AB               	movwf	___fldiv@b+1
  9139  1405  3000               	movlw	0
  9140  1406  00AA               	movwf	___fldiv@b
  9141  1407  3080               	movlw	128
  9142  1408  04AC               	iorwf	___fldiv@b+2,f
  9143  1409  307F               	movlw	127
  9144  140A  04AD               	iorwf	___fldiv@b+3,f
  9145  140B                     l3217:	
  9146  140B  0837               	movf	___fldiv@sign,w
  9147  140C  00AE               	movwf	??___fldiv
  9148  140D  082E               	movf	??___fldiv,w
  9149  140E  04AD               	iorwf	___fldiv@b+3,f
  9150  140F                     l3219:	
  9151  140F  082D               	movf	___fldiv@b+3,w
  9152  1410  00A9               	movwf	?___fldiv+3
  9153  1411  082C               	movf	___fldiv@b+2,w
  9154  1412  00A8               	movwf	?___fldiv+2
  9155  1413  082B               	movf	___fldiv@b+1,w
  9156  1414  00A7               	movwf	?___fldiv+1
  9157  1415  082A               	movf	___fldiv@b,w
  9158  1416  00A6               	movwf	?___fldiv
  9159  1417  2D77               	goto	l648
  9160  1418                     l3223:	
  9161  1418  083E               	movf	___fldiv@bexp,w
  9162  1419  1D03               	btfss	3,2
  9163  141A  2C1C               	goto	u5581
  9164  141B  2C1D               	goto	u5580
  9165  141C                     u5581:	
  9166  141C  2C26               	goto	l3229
  9167  141D                     u5580:	
  9168  141D                     l3225:	
  9169  141D  3000               	movlw	0
  9170  141E  00A9               	movwf	?___fldiv+3
  9171  141F  3000               	movlw	0
  9172  1420  00A8               	movwf	?___fldiv+2
  9173  1421  3000               	movlw	0
  9174  1422  00A7               	movwf	?___fldiv+1
  9175  1423  3000               	movlw	0
  9176  1424  00A6               	movwf	?___fldiv
  9177  1425  2D77               	goto	l648
  9178  1426                     l3229:	
  9179  1426  083E               	movf	___fldiv@bexp,w
  9180  1427  00AE               	movwf	??___fldiv
  9181  1428  01AF               	clrf	??___fldiv+1
  9182  1429  082F               	movf	??___fldiv+1,w
  9183  142A  00B1               	movwf	??___fldiv+3
  9184  142B  083F               	movf	___fldiv@aexp,w
  9185  142C  022E               	subwf	??___fldiv,w
  9186  142D  00B0               	movwf	??___fldiv+2
  9187  142E  1C03               	skipc
  9188  142F  03B1               	decf	??___fldiv+3,f
  9189  1430  0830               	movf	??___fldiv+2,w
  9190  1431  3E7F               	addlw	127
  9191  1432  00B8               	movwf	___fldiv@new_exp
  9192  1433  0831               	movf	??___fldiv+3,w
  9193  1434  1803               	skipnc
  9194  1435  3E01               	addlw	1
  9195  1436  3E00               	addlw	0
  9196  1437  00B9               	movwf	___fldiv@new_exp+1
  9197  1438                     l3231:	
  9198  1438  082D               	movf	___fldiv@b+3,w
  9199  1439  00B6               	movwf	___fldiv@rem+3
  9200  143A  082C               	movf	___fldiv@b+2,w
  9201  143B  00B5               	movwf	___fldiv@rem+2
  9202  143C  082B               	movf	___fldiv@b+1,w
  9203  143D  00B4               	movwf	___fldiv@rem+1
  9204  143E  082A               	movf	___fldiv@b,w
  9205  143F  00B3               	movwf	___fldiv@rem
  9206  1440                     l3233:	
  9207  1440  3000               	movlw	0
  9208  1441  00AD               	movwf	___fldiv@b+3
  9209  1442  3000               	movlw	0
  9210  1443  00AC               	movwf	___fldiv@b+2
  9211  1444  3000               	movlw	0
  9212  1445  00AB               	movwf	___fldiv@b+1
  9213  1446  3000               	movlw	0
  9214  1447  00AA               	movwf	___fldiv@b
  9215  1448                     l3235:	
  9216  1448  3000               	movlw	0
  9217  1449  00BD               	movwf	___fldiv@grs+3
  9218  144A  3000               	movlw	0
  9219  144B  00BC               	movwf	___fldiv@grs+2
  9220  144C  3000               	movlw	0
  9221  144D  00BB               	movwf	___fldiv@grs+1
  9222  144E  3000               	movlw	0
  9223  144F  00BA               	movwf	___fldiv@grs
  9224  1450                     l3237:	
  9225  1450  01BF               	clrf	___fldiv@aexp
  9226  1451  2C9C               	goto	l3257
  9227  1452                     l3239:	
  9228  1452  083F               	movf	___fldiv@aexp,w
  9229  1453  1903               	btfsc	3,2
  9230  1454  2C56               	goto	u5591
  9231  1455  2C57               	goto	u5590
  9232  1456                     u5591:	
  9233  1456  2C77               	goto	l3249
  9234  1457                     u5590:	
  9235  1457                     l3241:	
  9236  1457  3001               	movlw	1
  9237  1458  00AE               	movwf	??___fldiv
  9238  1459                     u5605:	
  9239  1459  1003               	clrc
  9240  145A  0DB3               	rlf	___fldiv@rem,f
  9241  145B  0DB4               	rlf	___fldiv@rem+1,f
  9242  145C  0DB5               	rlf	___fldiv@rem+2,f
  9243  145D  0DB6               	rlf	___fldiv@rem+3,f
  9244  145E  0BAE               	decfsz	??___fldiv,f
  9245  145F  2C59               	goto	u5605
  9246  1460  3001               	movlw	1
  9247  1461  00AE               	movwf	??___fldiv
  9248  1462                     u5615:	
  9249  1462  1003               	clrc
  9250  1463  0DAA               	rlf	___fldiv@b,f
  9251  1464  0DAB               	rlf	___fldiv@b+1,f
  9252  1465  0DAC               	rlf	___fldiv@b+2,f
  9253  1466  0DAD               	rlf	___fldiv@b+3,f
  9254  1467  0BAE               	decfsz	??___fldiv,f
  9255  1468  2C62               	goto	u5615
  9256  1469                     l3243:	
  9257  1469  1FBD               	btfss	___fldiv@grs+3,7
  9258  146A  2C6C               	goto	u5621
  9259  146B  2C6D               	goto	u5620
  9260  146C                     u5621:	
  9261  146C  2C6E               	goto	l3247
  9262  146D                     u5620:	
  9263  146D                     l3245:	
  9264  146D  142A               	bsf	___fldiv@b,0
  9265  146E                     l3247:	
  9266  146E  3001               	movlw	1
  9267  146F  00AE               	movwf	??___fldiv
  9268  1470                     u5635:	
  9269  1470  1003               	clrc
  9270  1471  0DBA               	rlf	___fldiv@grs,f
  9271  1472  0DBB               	rlf	___fldiv@grs+1,f
  9272  1473  0DBC               	rlf	___fldiv@grs+2,f
  9273  1474  0DBD               	rlf	___fldiv@grs+3,f
  9274  1475  0BAE               	decfsz	??___fldiv,f
  9275  1476  2C70               	goto	u5635
  9276  1477                     l3249:	
  9277  1477  0829               	movf	___fldiv@a+3,w
  9278  1478  0236               	subwf	___fldiv@rem+3,w
  9279  1479  1D03               	skipz
  9280  147A  2C85               	goto	u5645
  9281  147B  0828               	movf	___fldiv@a+2,w
  9282  147C  0235               	subwf	___fldiv@rem+2,w
  9283  147D  1D03               	skipz
  9284  147E  2C85               	goto	u5645
  9285  147F  0827               	movf	___fldiv@a+1,w
  9286  1480  0234               	subwf	___fldiv@rem+1,w
  9287  1481  1D03               	skipz
  9288  1482  2C85               	goto	u5645
  9289  1483  0826               	movf	___fldiv@a,w
  9290  1484  0233               	subwf	___fldiv@rem,w
  9291  1485                     u5645:	
  9292  1485  1C03               	skipc
  9293  1486  2C88               	goto	u5641
  9294  1487  2C89               	goto	u5640
  9295  1488                     u5641:	
  9296  1488  2C98               	goto	l3255
  9297  1489                     u5640:	
  9298  1489                     l3251:	
  9299  1489  173D               	bsf	___fldiv@grs+3,6
  9300  148A                     l3253:	
  9301  148A  0826               	movf	___fldiv@a,w
  9302  148B  02B3               	subwf	___fldiv@rem,f
  9303  148C  0827               	movf	___fldiv@a+1,w
  9304  148D  1C03               	skipc
  9305  148E  0F27               	incfsz	___fldiv@a+1,w
  9306  148F  02B4               	subwf	___fldiv@rem+1,f
  9307  1490  0828               	movf	___fldiv@a+2,w
  9308  1491  1C03               	skipc
  9309  1492  0F28               	incfsz	___fldiv@a+2,w
  9310  1493  02B5               	subwf	___fldiv@rem+2,f
  9311  1494  0829               	movf	___fldiv@a+3,w
  9312  1495  1C03               	skipc
  9313  1496  0F29               	incfsz	___fldiv@a+3,w
  9314  1497  02B6               	subwf	___fldiv@rem+3,f
  9315  1498                     l3255:	
  9316  1498  3001               	movlw	1
  9317  1499  00AE               	movwf	??___fldiv
  9318  149A  082E               	movf	??___fldiv,w
  9319  149B  07BF               	addwf	___fldiv@aexp,f
  9320  149C                     l3257:	
  9321  149C  301A               	movlw	26
  9322  149D  023F               	subwf	___fldiv@aexp,w
  9323  149E  1C03               	skipc
  9324  149F  2CA1               	goto	u5651
  9325  14A0  2CA2               	goto	u5650
  9326  14A1                     u5651:	
  9327  14A1  2C52               	goto	l3239
  9328  14A2                     u5650:	
  9329  14A2                     l3259:	
  9330  14A2  0836               	movf	___fldiv@rem+3,w
  9331  14A3  0435               	iorwf	___fldiv@rem+2,w
  9332  14A4  0434               	iorwf	___fldiv@rem+1,w
  9333  14A5  0433               	iorwf	___fldiv@rem,w
  9334  14A6  1903               	skipnz
  9335  14A7  2CA9               	goto	u5661
  9336  14A8  2CAA               	goto	u5660
  9337  14A9                     u5661:	
  9338  14A9  2CC9               	goto	l3273
  9339  14AA                     u5660:	
  9340  14AA                     l3261:	
  9341  14AA  143A               	bsf	___fldiv@grs,0
  9342  14AB  2CC9               	goto	l3273
  9343  14AC                     l3263:	
  9344  14AC  3001               	movlw	1
  9345  14AD  00AE               	movwf	??___fldiv
  9346  14AE                     u5675:	
  9347  14AE  1003               	clrc
  9348  14AF  0DAA               	rlf	___fldiv@b,f
  9349  14B0  0DAB               	rlf	___fldiv@b+1,f
  9350  14B1  0DAC               	rlf	___fldiv@b+2,f
  9351  14B2  0DAD               	rlf	___fldiv@b+3,f
  9352  14B3  0BAE               	decfsz	??___fldiv,f
  9353  14B4  2CAE               	goto	u5675
  9354  14B5                     l3265:	
  9355  14B5  1FBD               	btfss	___fldiv@grs+3,7
  9356  14B6  2CB8               	goto	u5681
  9357  14B7  2CB9               	goto	u5680
  9358  14B8                     u5681:	
  9359  14B8  2CBA               	goto	l3269
  9360  14B9                     u5680:	
  9361  14B9                     l3267:	
  9362  14B9  142A               	bsf	___fldiv@b,0
  9363  14BA                     l3269:	
  9364  14BA  3001               	movlw	1
  9365  14BB  00AE               	movwf	??___fldiv
  9366  14BC                     u5695:	
  9367  14BC  1003               	clrc
  9368  14BD  0DBA               	rlf	___fldiv@grs,f
  9369  14BE  0DBB               	rlf	___fldiv@grs+1,f
  9370  14BF  0DBC               	rlf	___fldiv@grs+2,f
  9371  14C0  0DBD               	rlf	___fldiv@grs+3,f
  9372  14C1  0BAE               	decfsz	??___fldiv,f
  9373  14C2  2CBC               	goto	u5695
  9374  14C3                     l3271:	
  9375  14C3  30FF               	movlw	255
  9376  14C4  07B8               	addwf	___fldiv@new_exp,f
  9377  14C5  1803               	skipnc
  9378  14C6  0AB9               	incf	___fldiv@new_exp+1,f
  9379  14C7  30FF               	movlw	255
  9380  14C8  07B9               	addwf	___fldiv@new_exp+1,f
  9381  14C9                     l3273:	
  9382  14C9  1FAC               	btfss	___fldiv@b+2,7
  9383  14CA  2CCC               	goto	u5701
  9384  14CB  2CCD               	goto	u5700
  9385  14CC                     u5701:	
  9386  14CC  2CAC               	goto	l3263
  9387  14CD                     u5700:	
  9388  14CD                     l3275:	
  9389  14CD  01BF               	clrf	___fldiv@aexp
  9390  14CE                     l3277:	
  9391  14CE  1FBD               	btfss	___fldiv@grs+3,7
  9392  14CF  2CD1               	goto	u5711
  9393  14D0  2CD2               	goto	u5710
  9394  14D1                     u5711:	
  9395  14D1  2CEE               	goto	l3285
  9396  14D2                     u5710:	
  9397  14D2                     l3279:	
  9398  14D2  30FF               	movlw	255
  9399  14D3  053A               	andwf	___fldiv@grs,w
  9400  14D4  00AE               	movwf	??___fldiv
  9401  14D5  30FF               	movlw	255
  9402  14D6  053B               	andwf	___fldiv@grs+1,w
  9403  14D7  00AF               	movwf	??___fldiv+1
  9404  14D8  30FF               	movlw	255
  9405  14D9  053C               	andwf	___fldiv@grs+2,w
  9406  14DA  00B0               	movwf	??___fldiv+2
  9407  14DB  307F               	movlw	127
  9408  14DC  053D               	andwf	___fldiv@grs+3,w
  9409  14DD  00B1               	movwf	??___fldiv+3
  9410  14DE  0831               	movf	??___fldiv+3,w
  9411  14DF  0430               	iorwf	??___fldiv+2,w
  9412  14E0  042F               	iorwf	??___fldiv+1,w
  9413  14E1  042E               	iorwf	??___fldiv,w
  9414  14E2  1903               	skipnz
  9415  14E3  2CE5               	goto	u5721
  9416  14E4  2CE6               	goto	u5720
  9417  14E5                     u5721:	
  9418  14E5  2CE9               	goto	l662
  9419  14E6                     u5720:	
  9420  14E6                     l3281:	
  9421  14E6  01BF               	clrf	___fldiv@aexp
  9422  14E7  0ABF               	incf	___fldiv@aexp,f
  9423  14E8  2CEE               	goto	l3285
  9424  14E9                     l662:	
  9425  14E9  1C2A               	btfss	___fldiv@b,0
  9426  14EA  2CEC               	goto	u5731
  9427  14EB  2CED               	goto	u5730
  9428  14EC                     u5731:	
  9429  14EC  2CEE               	goto	l3285
  9430  14ED                     u5730:	
  9431  14ED  2CE6               	goto	l3281
  9432  14EE                     l3285:	
  9433  14EE  083F               	movf	___fldiv@aexp,w
  9434  14EF  1903               	btfsc	3,2
  9435  14F0  2CF2               	goto	u5741
  9436  14F1  2CF3               	goto	u5740
  9437  14F2                     u5741:	
  9438  14F2  2D24               	goto	l3295
  9439  14F3                     u5740:	
  9440  14F3                     l3287:	
  9441  14F3  3001               	movlw	1
  9442  14F4  07AA               	addwf	___fldiv@b,f
  9443  14F5  3000               	movlw	0
  9444  14F6  1803               	skipnc
  9445  14F7  3001               	movlw	1
  9446  14F8  07AB               	addwf	___fldiv@b+1,f
  9447  14F9  3000               	movlw	0
  9448  14FA  1803               	skipnc
  9449  14FB  3001               	movlw	1
  9450  14FC  07AC               	addwf	___fldiv@b+2,f
  9451  14FD  3000               	movlw	0
  9452  14FE  1803               	skipnc
  9453  14FF  3001               	movlw	1
  9454  1500  07AD               	addwf	___fldiv@b+3,f
  9455  1501                     l3289:	
  9456  1501  1C2D               	btfss	___fldiv@b+3,0
  9457  1502  2D04               	goto	u5751
  9458  1503  2D05               	goto	u5750
  9459  1504                     u5751:	
  9460  1504  2D24               	goto	l3295
  9461  1505                     u5750:	
  9462  1505                     l3291:	
  9463  1505  082A               	movf	___fldiv@b,w
  9464  1506  00AE               	movwf	??___fldiv
  9465  1507  082B               	movf	___fldiv@b+1,w
  9466  1508  00AF               	movwf	??___fldiv+1
  9467  1509  082C               	movf	___fldiv@b+2,w
  9468  150A  00B0               	movwf	??___fldiv+2
  9469  150B  082D               	movf	___fldiv@b+3,w
  9470  150C  00B1               	movwf	??___fldiv+3
  9471  150D  3001               	movlw	1
  9472  150E  00B2               	movwf	??___fldiv+4
  9473  150F                     u5765:	
  9474  150F  0D31               	rlf	??___fldiv+3,w
  9475  1510  0CB1               	rrf	??___fldiv+3,f
  9476  1511  0CB0               	rrf	??___fldiv+2,f
  9477  1512  0CAF               	rrf	??___fldiv+1,f
  9478  1513  0CAE               	rrf	??___fldiv,f
  9479  1514                     u5760:	
  9480  1514  0BB2               	decfsz	??___fldiv+4,f
  9481  1515  2D0F               	goto	u5765
  9482  1516  0831               	movf	??___fldiv+3,w
  9483  1517  00AD               	movwf	___fldiv@b+3
  9484  1518  0830               	movf	??___fldiv+2,w
  9485  1519  00AC               	movwf	___fldiv@b+2
  9486  151A  082F               	movf	??___fldiv+1,w
  9487  151B  00AB               	movwf	___fldiv@b+1
  9488  151C  082E               	movf	??___fldiv,w
  9489  151D  00AA               	movwf	___fldiv@b
  9490  151E                     l3293:	
  9491  151E  3001               	movlw	1
  9492  151F  07B8               	addwf	___fldiv@new_exp,f
  9493  1520  1803               	skipnc
  9494  1521  0AB9               	incf	___fldiv@new_exp+1,f
  9495  1522  3000               	movlw	0
  9496  1523  07B9               	addwf	___fldiv@new_exp+1,f
  9497  1524                     l3295:	
  9498  1524  0839               	movf	___fldiv@new_exp+1,w
  9499  1525  3A80               	xorlw	128
  9500  1526  00FF               	movwf	btemp+1
  9501  1527  3080               	movlw	128
  9502  1528  027F               	subwf	btemp+1,w
  9503  1529  1D03               	skipz
  9504  152A  2D2D               	goto	u5775
  9505  152B  30FF               	movlw	255
  9506  152C  0238               	subwf	___fldiv@new_exp,w
  9507  152D                     u5775:	
  9508  152D  1C03               	skipc
  9509  152E  2D30               	goto	u5771
  9510  152F  2D31               	goto	u5770
  9511  1530                     u5771:	
  9512  1530  2D3F               	goto	l3299
  9513  1531                     u5770:	
  9514  1531                     l3297:	
  9515  1531  30FF               	movlw	255
  9516  1532  1283               	bcf	3,5	;RP0=0, select bank0
  9517  1533  1303               	bcf	3,6	;RP1=0, select bank0
  9518  1534  00B8               	movwf	___fldiv@new_exp
  9519  1535  3000               	movlw	0
  9520  1536  00B9               	movwf	___fldiv@new_exp+1
  9521  1537  3000               	movlw	0
  9522  1538  00AD               	movwf	___fldiv@b+3
  9523  1539  3000               	movlw	0
  9524  153A  00AC               	movwf	___fldiv@b+2
  9525  153B  3000               	movlw	0
  9526  153C  00AB               	movwf	___fldiv@b+1
  9527  153D  3000               	movlw	0
  9528  153E  00AA               	movwf	___fldiv@b
  9529  153F                     l3299:	
  9530  153F  1283               	bcf	3,5	;RP0=0, select bank0
  9531  1540  1303               	bcf	3,6	;RP1=0, select bank0
  9532  1541  0839               	movf	___fldiv@new_exp+1,w
  9533  1542  3A80               	xorlw	128
  9534  1543  00FF               	movwf	btemp+1
  9535  1544  3080               	movlw	128
  9536  1545  027F               	subwf	btemp+1,w
  9537  1546  1D03               	skipz
  9538  1547  2D4A               	goto	u5785
  9539  1548  3001               	movlw	1
  9540  1549  0238               	subwf	___fldiv@new_exp,w
  9541  154A                     u5785:	
  9542  154A  1803               	skipnc
  9543  154B  2D4D               	goto	u5781
  9544  154C  2D4E               	goto	u5780
  9545  154D                     u5781:	
  9546  154D  2D5B               	goto	l668
  9547  154E                     u5780:	
  9548  154E                     l3301:	
  9549  154E  1283               	bcf	3,5	;RP0=0, select bank0
  9550  154F  1303               	bcf	3,6	;RP1=0, select bank0
  9551  1550  01B8               	clrf	___fldiv@new_exp
  9552  1551  01B9               	clrf	___fldiv@new_exp+1
  9553  1552                     l3303:	
  9554  1552  3000               	movlw	0
  9555  1553  00AD               	movwf	___fldiv@b+3
  9556  1554  3000               	movlw	0
  9557  1555  00AC               	movwf	___fldiv@b+2
  9558  1556  3000               	movlw	0
  9559  1557  00AB               	movwf	___fldiv@b+1
  9560  1558  3000               	movlw	0
  9561  1559  00AA               	movwf	___fldiv@b
  9562  155A                     l3305:	
  9563  155A  01B7               	clrf	___fldiv@sign
  9564  155B                     l668:	
  9565  155B  1283               	bcf	3,5	;RP0=0, select bank0
  9566  155C  1303               	bcf	3,6	;RP1=0, select bank0
  9567  155D  0838               	movf	___fldiv@new_exp,w
  9568  155E  00AE               	movwf	??___fldiv
  9569  155F  082E               	movf	??___fldiv,w
  9570  1560  00BE               	movwf	___fldiv@bexp
  9571  1561                     l3307:	
  9572  1561  1C3E               	btfss	___fldiv@bexp,0
  9573  1562  2D64               	goto	u5791
  9574  1563  2D65               	goto	u5790
  9575  1564                     u5791:	
  9576  1564  2D67               	goto	l3311
  9577  1565                     u5790:	
  9578  1565                     l3309:	
  9579  1565  17AC               	bsf	___fldiv@b+2,7
  9580  1566  2D6B               	goto	l670
  9581  1567                     l3311:	
  9582  1567  307F               	movlw	127
  9583  1568  00AE               	movwf	??___fldiv
  9584  1569  082E               	movf	??___fldiv,w
  9585  156A  05AC               	andwf	___fldiv@b+2,f
  9586  156B                     l670:	
  9587  156B  083E               	movf	___fldiv@bexp,w
  9588  156C  00AE               	movwf	??___fldiv
  9589  156D  1003               	clrc
  9590  156E  0C2E               	rrf	??___fldiv,w
  9591  156F  00AF               	movwf	??___fldiv+1
  9592  1570  082F               	movf	??___fldiv+1,w
  9593  1571  00AD               	movwf	___fldiv@b+3
  9594  1572  0837               	movf	___fldiv@sign,w
  9595  1573  00AE               	movwf	??___fldiv
  9596  1574  082E               	movf	??___fldiv,w
  9597  1575  04AD               	iorwf	___fldiv@b+3,f
  9598  1576  2C0F               	goto	l3219
  9599  1577                     l648:	
  9600  1577  0008               	return
  9601  1578                     __end_of___fldiv:	
  9602                           
  9603                           	psect	text25
  9604  1DB6                     __ptext25:	
  9605 ;; *************** function _Lcd_Set_Cursor *****************
  9606 ;; Defined at:
  9607 ;;		line 51 in file "./LCD_driver.c"
  9608 ;; Parameters:    Size  Location     Type
  9609 ;;  row             1    wreg     unsigned char 
  9610 ;;  column          1    4[COMMON] unsigned char 
  9611 ;; Auto vars:     Size  Location     Type
  9612 ;;  row             1    7[COMMON] unsigned char 
  9613 ;;  temp            1   10[COMMON] unsigned char 
  9614 ;;  y               1    9[COMMON] unsigned char 
  9615 ;;  z               1    8[COMMON] unsigned char 
  9616 ;; Return value:  Size  Location     Type
  9617 ;;                  1    wreg      void 
  9618 ;; Registers used:
  9619 ;;		wreg, status,2, status,0, pclath, cstack
  9620 ;; Tracked objects:
  9621 ;;		On entry : 0/0
  9622 ;;		On exit  : 0/0
  9623 ;;		Unchanged: 0/0
  9624 ;; Data sizes:     COMMON   BANK0   BANK1   BANK3   BANK2
  9625 ;;      Params:         1       0       0       0       0
  9626 ;;      Locals:         4       0       0       0       0
  9627 ;;      Temps:          2       0       0       0       0
  9628 ;;      Totals:         7       0       0       0       0
  9629 ;;Total ram usage:        7 bytes
  9630 ;; Hardware stack levels used:    1
  9631 ;; Hardware stack levels required when called:    2
  9632 ;; This function calls:
  9633 ;;		_Lcd_Cmd
  9634 ;; This function is called by:
  9635 ;;		_ADC_Read
  9636 ;; This function uses a non-reentrant model
  9637 ;;
  9638                           
  9639                           
  9640                           ;psect for function _Lcd_Set_Cursor
  9641  1DB6                     _Lcd_Set_Cursor:	
  9642                           
  9643                           ;incstack = 0
  9644                           ; Regs used in _Lcd_Set_Cursor: [wreg+status,2+status,0+pclath+cstack]
  9645                           ;Lcd_Set_Cursor@row stored from wreg
  9646  1DB6  00F7               	movwf	Lcd_Set_Cursor@row
  9647  1DB7                     l2975:	
  9648                           
  9649                           ;./LCD_driver.c: 51: void Lcd_Set_Cursor(char row, char column);./LCD_driver.c: 52: {;./
      +                          LCD_driver.c: 53:     char temp,z,y;;./LCD_driver.c: 54:     if(row == 1)
  9650  1DB7  0377               	decf	Lcd_Set_Cursor@row,w
  9651  1DB8  1D03               	btfss	3,2
  9652  1DB9  2DBB               	goto	u5171
  9653  1DBA  2DBC               	goto	u5170
  9654  1DBB                     u5171:	
  9655  1DBB  2DDF               	goto	l2985
  9656  1DBC                     u5170:	
  9657  1DBC                     l2977:	
  9658                           
  9659                           ;./LCD_driver.c: 55:     {;./LCD_driver.c: 56:         temp = 0x80 + column - 1;
  9660  1DBC  0874               	movf	Lcd_Set_Cursor@column,w
  9661  1DBD  3E7F               	addlw	127
  9662  1DBE  00F5               	movwf	??_Lcd_Set_Cursor
  9663  1DBF  0875               	movf	??_Lcd_Set_Cursor,w
  9664  1DC0  00FA               	movwf	Lcd_Set_Cursor@temp
  9665                           
  9666                           ;./LCD_driver.c: 57:         z = temp>>4;
  9667  1DC1  087A               	movf	Lcd_Set_Cursor@temp,w
  9668  1DC2  00F5               	movwf	??_Lcd_Set_Cursor
  9669  1DC3  3004               	movlw	4
  9670  1DC4                     u5185:	
  9671  1DC4  1003               	clrc
  9672  1DC5  0CF5               	rrf	??_Lcd_Set_Cursor,f
  9673  1DC6  3EFF               	addlw	-1
  9674  1DC7  1D03               	skipz
  9675  1DC8  2DC4               	goto	u5185
  9676  1DC9  0875               	movf	??_Lcd_Set_Cursor,w
  9677  1DCA  00F6               	movwf	??_Lcd_Set_Cursor+1
  9678  1DCB  0876               	movf	??_Lcd_Set_Cursor+1,w
  9679  1DCC  00F8               	movwf	Lcd_Set_Cursor@z
  9680  1DCD                     l2979:	
  9681                           
  9682                           ;./LCD_driver.c: 58:         y = temp & 0x0F;
  9683  1DCD  087A               	movf	Lcd_Set_Cursor@temp,w
  9684  1DCE  390F               	andlw	15
  9685  1DCF  00F5               	movwf	??_Lcd_Set_Cursor
  9686  1DD0  0875               	movf	??_Lcd_Set_Cursor,w
  9687  1DD1  00F9               	movwf	Lcd_Set_Cursor@y
  9688  1DD2                     l2981:	
  9689                           
  9690                           ;./LCD_driver.c: 59:         Lcd_Cmd(z);
  9691  1DD2  0878               	movf	Lcd_Set_Cursor@z,w
  9692  1DD3  160A  158A  23A4  160A  158A  	fcall	_Lcd_Cmd
  9693  1DD8                     l2983:	
  9694                           
  9695                           ;./LCD_driver.c: 60:         Lcd_Cmd(y);
  9696  1DD8  0879               	movf	Lcd_Set_Cursor@y,w
  9697  1DD9  160A  158A  23A4  160A  158A  	fcall	_Lcd_Cmd
  9698                           
  9699                           ;./LCD_driver.c: 61:     }
  9700  1DDE  2E07               	goto	l59
  9701  1DDF                     l2985:	
  9702  1DDF  3002               	movlw	2
  9703  1DE0  0677               	xorwf	Lcd_Set_Cursor@row,w
  9704  1DE1  1D03               	btfss	3,2
  9705  1DE2  2DE4               	goto	u5191
  9706  1DE3  2DE5               	goto	u5190
  9707  1DE4                     u5191:	
  9708  1DE4  2E07               	goto	l59
  9709  1DE5                     u5190:	
  9710  1DE5                     l2987:	
  9711                           
  9712                           ;./LCD_driver.c: 63:     {;./LCD_driver.c: 64:         temp = 0xC0 + column - 1;
  9713  1DE5  0874               	movf	Lcd_Set_Cursor@column,w
  9714  1DE6  3EBF               	addlw	191
  9715  1DE7  00F5               	movwf	??_Lcd_Set_Cursor
  9716  1DE8  0875               	movf	??_Lcd_Set_Cursor,w
  9717  1DE9  00FA               	movwf	Lcd_Set_Cursor@temp
  9718                           
  9719                           ;./LCD_driver.c: 65:         z = temp>>4;
  9720  1DEA  087A               	movf	Lcd_Set_Cursor@temp,w
  9721  1DEB  00F5               	movwf	??_Lcd_Set_Cursor
  9722  1DEC  3004               	movlw	4
  9723  1DED                     u5205:	
  9724  1DED  1003               	clrc
  9725  1DEE  0CF5               	rrf	??_Lcd_Set_Cursor,f
  9726  1DEF  3EFF               	addlw	-1
  9727  1DF0  1D03               	skipz
  9728  1DF1  2DED               	goto	u5205
  9729  1DF2  0875               	movf	??_Lcd_Set_Cursor,w
  9730  1DF3  00F6               	movwf	??_Lcd_Set_Cursor+1
  9731  1DF4  0876               	movf	??_Lcd_Set_Cursor+1,w
  9732  1DF5  00F8               	movwf	Lcd_Set_Cursor@z
  9733  1DF6                     l2989:	
  9734                           
  9735                           ;./LCD_driver.c: 66:         y = temp & 0x0F;
  9736  1DF6  087A               	movf	Lcd_Set_Cursor@temp,w
  9737  1DF7  390F               	andlw	15
  9738  1DF8  00F5               	movwf	??_Lcd_Set_Cursor
  9739  1DF9  0875               	movf	??_Lcd_Set_Cursor,w
  9740  1DFA  00F9               	movwf	Lcd_Set_Cursor@y
  9741  1DFB                     l2991:	
  9742                           
  9743                           ;./LCD_driver.c: 67:         Lcd_Cmd(z);
  9744  1DFB  0878               	movf	Lcd_Set_Cursor@z,w
  9745  1DFC  160A  158A  23A4  160A  158A  	fcall	_Lcd_Cmd
  9746  1E01                     l2993:	
  9747                           
  9748                           ;./LCD_driver.c: 68:         Lcd_Cmd(y);
  9749  1E01  0879               	movf	Lcd_Set_Cursor@y,w
  9750  1E02  160A  158A  23A4  160A  158A  	fcall	_Lcd_Cmd
  9751  1E07                     l59:	
  9752  1E07  0008               	return
  9753  1E08                     __end_of_Lcd_Set_Cursor:	
  9754                           
  9755                           	psect	text26
  9756  1CE2                     __ptext26:	
  9757 ;; *************** function _Lcd_Print_String *****************
  9758 ;; Defined at:
  9759 ;;		line 107 in file "./LCD_driver.c"
  9760 ;; Parameters:    Size  Location     Type
  9761 ;;  a               2    5[COMMON] PTR unsigned char 
  9762 ;;		 -> STR_2(13), char_data(16), 
  9763 ;; Auto vars:     Size  Location     Type
  9764 ;;  i               2   10[COMMON] int 
  9765 ;; Return value:  Size  Location     Type
  9766 ;;                  1    wreg      void 
  9767 ;; Registers used:
  9768 ;;		wreg, fsr0l, fsr0h, status,2, status,0, btemp+1, pclath, cstack
  9769 ;; Tracked objects:
  9770 ;;		On entry : 0/0
  9771 ;;		On exit  : 0/0
  9772 ;;		Unchanged: 0/0
  9773 ;; Data sizes:     COMMON   BANK0   BANK1   BANK3   BANK2
  9774 ;;      Params:         2       0       0       0       0
  9775 ;;      Locals:         2       0       0       0       0
  9776 ;;      Temps:          3       0       0       0       0
  9777 ;;      Totals:         7       0       0       0       0
  9778 ;;Total ram usage:        7 bytes
  9779 ;; Hardware stack levels used:    1
  9780 ;; Hardware stack levels required when called:    2
  9781 ;; This function calls:
  9782 ;;		_Lcd_Print_Char
  9783 ;; This function is called by:
  9784 ;;		_ADC_Read
  9785 ;; This function uses a non-reentrant model
  9786 ;;
  9787                           
  9788                           
  9789                           ;psect for function _Lcd_Print_String
  9790  1CE2                     _Lcd_Print_String:	
  9791  1CE2                     l2995:	
  9792                           ;incstack = 0
  9793                           ; Regs used in _Lcd_Print_String: [wreg-fsr0h+status,2+status,0+btemp+1+pclath+cstack]
  9794                           
  9795                           
  9796                           ;./LCD_driver.c: 107: void Lcd_Print_String(char *a);./LCD_driver.c: 108: {;./LCD_driver
      +                          .c: 109:     int i;;./LCD_driver.c: 110:     for(i=0;a[i]!='\0';i++)
  9797  1CE2  01FA               	clrf	Lcd_Print_String@i
  9798  1CE3  01FB               	clrf	Lcd_Print_String@i+1
  9799  1CE4  2D07               	goto	l3001
  9800  1CE5                     l2997:	
  9801                           
  9802                           ;./LCD_driver.c: 111:        Lcd_Print_Char(a[i]);
  9803  1CE5  087A               	movf	Lcd_Print_String@i,w
  9804  1CE6  0775               	addwf	Lcd_Print_String@a,w
  9805  1CE7  00F8               	movwf	??_Lcd_Print_String+1
  9806  1CE8  0876               	movf	Lcd_Print_String@a+1,w
  9807  1CE9  00F7               	movwf	??_Lcd_Print_String
  9808  1CEA  1803               	skipnc
  9809  1CEB  0AF7               	incf	??_Lcd_Print_String,f
  9810  1CEC  1FFA               	btfss	Lcd_Print_String@i,7
  9811  1CED  2CEF               	goto	u5210
  9812  1CEE  03F7               	decf	??_Lcd_Print_String,f
  9813  1CEF                     u5210:	
  9814  1CEF  0877               	movf	??_Lcd_Print_String,w
  9815  1CF0  00F9               	movwf	??_Lcd_Print_String+2
  9816  1CF1  0879               	movf	??_Lcd_Print_String+2,w
  9817  1CF2  1283               	bcf	3,5	;RP0=0, select bank0
  9818  1CF3  1303               	bcf	3,6	;RP1=0, select bank0
  9819  1CF4  00FF               	movwf	btemp+1
  9820  1CF5  0878               	movf	??_Lcd_Print_String+1,w
  9821  1CF6  0084               	movwf	4
  9822  1CF7  160A  118A  2000  160A  158A  	fcall	stringtab
  9823  1CFC  120A  118A  2003  160A  158A  	fcall	_Lcd_Print_Char
  9824  1D01                     l2999:	
  9825  1D01  3001               	movlw	1
  9826  1D02  07FA               	addwf	Lcd_Print_String@i,f
  9827  1D03  1803               	skipnc
  9828  1D04  0AFB               	incf	Lcd_Print_String@i+1,f
  9829  1D05  3000               	movlw	0
  9830  1D06  07FB               	addwf	Lcd_Print_String@i+1,f
  9831  1D07                     l3001:	
  9832  1D07  087A               	movf	Lcd_Print_String@i,w
  9833  1D08  0775               	addwf	Lcd_Print_String@a,w
  9834  1D09  00F8               	movwf	??_Lcd_Print_String+1
  9835  1D0A  0876               	movf	Lcd_Print_String@a+1,w
  9836  1D0B  00F7               	movwf	??_Lcd_Print_String
  9837  1D0C  1803               	skipnc
  9838  1D0D  0AF7               	incf	??_Lcd_Print_String,f
  9839  1D0E  1FFA               	btfss	Lcd_Print_String@i,7
  9840  1D0F  2D11               	goto	u5220
  9841  1D10  03F7               	decf	??_Lcd_Print_String,f
  9842  1D11                     u5220:	
  9843  1D11  0877               	movf	??_Lcd_Print_String,w
  9844  1D12  00F9               	movwf	??_Lcd_Print_String+2
  9845  1D13  0879               	movf	??_Lcd_Print_String+2,w
  9846  1D14  1283               	bcf	3,5	;RP0=0, select bank0
  9847  1D15  1303               	bcf	3,6	;RP1=0, select bank0
  9848  1D16  00FF               	movwf	btemp+1
  9849  1D17  0878               	movf	??_Lcd_Print_String+1,w
  9850  1D18  0084               	movwf	4
  9851  1D19  160A  118A  2000  160A  158A  	fcall	stringtab
  9852  1D1E  3A00               	xorlw	0
  9853  1D1F  1D03               	skipz
  9854  1D20  2D22               	goto	u5231
  9855  1D21  2D23               	goto	u5230
  9856  1D22                     u5231:	
  9857  1D22  2CE5               	goto	l2997
  9858  1D23                     u5230:	
  9859  1D23                     l71:	
  9860  1D23  0008               	return
  9861  1D24                     __end_of_Lcd_Print_String:	
  9862                           
  9863                           	psect	text27
  9864  0003                     __ptext27:	
  9865 ;; *************** function _Lcd_Print_Char *****************
  9866 ;; Defined at:
  9867 ;;		line 91 in file "./LCD_driver.c"
  9868 ;; Parameters:    Size  Location     Type
  9869 ;;  data            1    wreg     unsigned char 
  9870 ;; Auto vars:     Size  Location     Type
  9871 ;;  data            1    4[COMMON] unsigned char 
  9872 ;;  Upper_Nibble    1    3[COMMON] unsigned char 
  9873 ;;  Lower_Nibble    1    2[COMMON] unsigned char 
  9874 ;; Return value:  Size  Location     Type
  9875 ;;                  1    wreg      void 
  9876 ;; Registers used:
  9877 ;;		wreg, status,2, status,0, pclath, cstack
  9878 ;; Tracked objects:
  9879 ;;		On entry : 0/0
  9880 ;;		On exit  : 0/0
  9881 ;;		Unchanged: 0/0
  9882 ;; Data sizes:     COMMON   BANK0   BANK1   BANK3   BANK2
  9883 ;;      Params:         0       0       0       0       0
  9884 ;;      Locals:         3       0       0       0       0
  9885 ;;      Temps:          1       0       0       0       0
  9886 ;;      Totals:         4       0       0       0       0
  9887 ;;Total ram usage:        4 bytes
  9888 ;; Hardware stack levels used:    1
  9889 ;; Hardware stack levels required when called:    1
  9890 ;; This function calls:
  9891 ;;		_Lcd_SetBit
  9892 ;; This function is called by:
  9893 ;;		_Lcd_Print_String
  9894 ;; This function uses a non-reentrant model
  9895 ;;
  9896                           
  9897                           
  9898                           ;psect for function _Lcd_Print_Char
  9899  0003                     _Lcd_Print_Char:	
  9900                           
  9901                           ;incstack = 0
  9902                           ; Regs used in _Lcd_Print_Char: [wreg+status,2+status,0+pclath+cstack]
  9903                           ;Lcd_Print_Char@data stored from wreg
  9904  0003  00F4               	movwf	Lcd_Print_Char@data
  9905  0004                     l2611:	
  9906                           
  9907                           ;./LCD_driver.c: 91: void Lcd_Print_Char(char data);./LCD_driver.c: 92: {;./LCD_driver.c
      +                          : 93:    char Lower_Nibble,Upper_Nibble;;./LCD_driver.c: 94:    Lower_Nibble = data&0x0F
      +                          ;
  9908  0004  0874               	movf	Lcd_Print_Char@data,w
  9909  0005  390F               	andlw	15
  9910  0006  00F1               	movwf	??_Lcd_Print_Char
  9911  0007  0871               	movf	??_Lcd_Print_Char,w
  9912  0008  00F2               	movwf	Lcd_Print_Char@Lower_Nibble
  9913                           
  9914                           ;./LCD_driver.c: 95:    Upper_Nibble = data&0xF0;
  9915  0009  0874               	movf	Lcd_Print_Char@data,w
  9916  000A  39F0               	andlw	240
  9917  000B  00F1               	movwf	??_Lcd_Print_Char
  9918  000C  0871               	movf	??_Lcd_Print_Char,w
  9919  000D  00F3               	movwf	Lcd_Print_Char@Upper_Nibble
  9920  000E                     l2613:	
  9921                           
  9922                           ;./LCD_driver.c: 96:    RD2 = 1;
  9923  000E  1283               	bcf	3,5	;RP0=0, select bank0
  9924  000F  1303               	bcf	3,6	;RP1=0, select bank0
  9925  0010  1508               	bsf	8,2	;volatile
  9926  0011                     l2615:	
  9927                           
  9928                           ;./LCD_driver.c: 97:    Lcd_SetBit(Upper_Nibble>>4);
  9929  0011  0873               	movf	Lcd_Print_Char@Upper_Nibble,w
  9930  0012  00F1               	movwf	??_Lcd_Print_Char
  9931  0013  3004               	movlw	4
  9932  0014                     u4135:	
  9933  0014  1003               	clrc
  9934  0015  0CF1               	rrf	??_Lcd_Print_Char,f
  9935  0016  3EFF               	addlw	-1
  9936  0017  1D03               	skipz
  9937  0018  2814               	goto	u4135
  9938  0019  0871               	movf	??_Lcd_Print_Char,w
  9939  001A  160A  158A  23D9  120A  118A  	fcall	_Lcd_SetBit
  9940  001F                     l2617:	
  9941                           
  9942                           ;./LCD_driver.c: 98:    RD3 = 1;
  9943  001F  1283               	bcf	3,5	;RP0=0, select bank0
  9944  0020  1303               	bcf	3,6	;RP1=0, select bank0
  9945  0021  1588               	bsf	8,3	;volatile
  9946  0022                     l2619:	
  9947                           
  9948                           ;./LCD_driver.c: 100:    RD3 = 0;
  9949  0022  1188               	bcf	8,3	;volatile
  9950  0023                     l2621:	
  9951                           
  9952                           ;./LCD_driver.c: 101:    Lcd_SetBit(Lower_Nibble);
  9953  0023  0872               	movf	Lcd_Print_Char@Lower_Nibble,w
  9954  0024  160A  158A  23D9  120A  118A  	fcall	_Lcd_SetBit
  9955  0029                     l2623:	
  9956                           
  9957                           ;./LCD_driver.c: 102:    RD3 = 1;
  9958  0029  1283               	bcf	3,5	;RP0=0, select bank0
  9959  002A  1303               	bcf	3,6	;RP1=0, select bank0
  9960  002B  1588               	bsf	8,3	;volatile
  9961  002C                     l2625:	
  9962                           
  9963                           ;./LCD_driver.c: 104:    RD3 = 0;
  9964  002C  1188               	bcf	8,3	;volatile
  9965  002D                     l65:	
  9966  002D  0008               	return
  9967  002E                     __end_of_Lcd_Print_Char:	
  9968                           
  9969                           	psect	text28
  9970  10B5                     __ptext28:	
  9971 ;; *************** function _Lcd_Clear *****************
  9972 ;; Defined at:
  9973 ;;		line 44 in file "./LCD_driver.c"
  9974 ;; Parameters:    Size  Location     Type
  9975 ;;		None
  9976 ;; Auto vars:     Size  Location     Type
  9977 ;;		None
  9978 ;; Return value:  Size  Location     Type
  9979 ;;                  1    wreg      void 
  9980 ;; Registers used:
  9981 ;;		wreg, status,2, status,0, pclath, cstack
  9982 ;; Tracked objects:
  9983 ;;		On entry : 0/0
  9984 ;;		On exit  : 0/0
  9985 ;;		Unchanged: 0/0
  9986 ;; Data sizes:     COMMON   BANK0   BANK1   BANK3   BANK2
  9987 ;;      Params:         0       0       0       0       0
  9988 ;;      Locals:         0       0       0       0       0
  9989 ;;      Temps:          0       0       0       0       0
  9990 ;;      Totals:         0       0       0       0       0
  9991 ;;Total ram usage:        0 bytes
  9992 ;; Hardware stack levels used:    1
  9993 ;; Hardware stack levels required when called:    2
  9994 ;; This function calls:
  9995 ;;		_Lcd_Cmd
  9996 ;; This function is called by:
  9997 ;;		_main
  9998 ;;		_ADC_Read
  9999 ;; This function uses a non-reentrant model
 10000 ;;
 10001                           
 10002                           
 10003                           ;psect for function _Lcd_Clear
 10004  10B5                     _Lcd_Clear:	
 10005  10B5                     l2973:	
 10006                           ;incstack = 0
 10007                           ; Regs used in _Lcd_Clear: [wreg+status,2+status,0+pclath+cstack]
 10008                           
 10009                           
 10010                           ;./LCD_driver.c: 46:     Lcd_Cmd(0x00);
 10011  10B5  3000               	movlw	0
 10012  10B6  160A  158A  23A4  160A  118A  	fcall	_Lcd_Cmd
 10013                           
 10014                           ;./LCD_driver.c: 47:     Lcd_Cmd(0x01);
 10015  10BB  3001               	movlw	1
 10016  10BC  160A  158A  23A4  160A  118A  	fcall	_Lcd_Cmd
 10017  10C1                     l53:	
 10018  10C1  0008               	return
 10019  10C2                     __end_of_Lcd_Clear:	
 10020                           
 10021                           	psect	text29
 10022  1BA4                     __ptext29:	
 10023 ;; *************** function _Lcd_Cmd *****************
 10024 ;; Defined at:
 10025 ;;		line 35 in file "./LCD_driver.c"
 10026 ;; Parameters:    Size  Location     Type
 10027 ;;  a               1    wreg     unsigned char 
 10028 ;; Auto vars:     Size  Location     Type
 10029 ;;  a               1    3[COMMON] unsigned char 
 10030 ;; Return value:  Size  Location     Type
 10031 ;;                  1    wreg      void 
 10032 ;; Registers used:
 10033 ;;		wreg, status,2, status,0, pclath, cstack
 10034 ;; Tracked objects:
 10035 ;;		On entry : 0/0
 10036 ;;		On exit  : 0/0
 10037 ;;		Unchanged: 0/0
 10038 ;; Data sizes:     COMMON   BANK0   BANK1   BANK3   BANK2
 10039 ;;      Params:         0       0       0       0       0
 10040 ;;      Locals:         1       0       0       0       0
 10041 ;;      Temps:          2       0       0       0       0
 10042 ;;      Totals:         3       0       0       0       0
 10043 ;;Total ram usage:        3 bytes
 10044 ;; Hardware stack levels used:    1
 10045 ;; Hardware stack levels required when called:    1
 10046 ;; This function calls:
 10047 ;;		_Lcd_SetBit
 10048 ;; This function is called by:
 10049 ;;		_Lcd_Clear
 10050 ;;		_Lcd_Set_Cursor
 10051 ;;		_Lcd_Start
 10052 ;; This function uses a non-reentrant model
 10053 ;;
 10054                           
 10055                           
 10056                           ;psect for function _Lcd_Cmd
 10057  1BA4                     _Lcd_Cmd:	
 10058                           
 10059                           ;incstack = 0
 10060                           ; Regs used in _Lcd_Cmd: [wreg+status,2+status,0+pclath+cstack]
 10061                           ;Lcd_Cmd@a stored from wreg
 10062  1BA4  00F3               	movwf	Lcd_Cmd@a
 10063  1BA5                     l2601:	
 10064                           
 10065                           ;./LCD_driver.c: 35: void Lcd_Cmd(char a);./LCD_driver.c: 36: {;./LCD_driver.c: 37:     
      +                          RD2 = 0;
 10066  1BA5  1283               	bcf	3,5	;RP0=0, select bank0
 10067  1BA6  1303               	bcf	3,6	;RP1=0, select bank0
 10068  1BA7  1108               	bcf	8,2	;volatile
 10069  1BA8                     l2603:	
 10070                           
 10071                           ;./LCD_driver.c: 38:     Lcd_SetBit(a);
 10072  1BA8  0873               	movf	Lcd_Cmd@a,w
 10073  1BA9  160A  158A  23D9  160A  158A  	fcall	_Lcd_SetBit
 10074  1BAE                     l2605:	
 10075                           
 10076                           ;./LCD_driver.c: 39:     RD3 = 1;
 10077  1BAE  1283               	bcf	3,5	;RP0=0, select bank0
 10078  1BAF  1303               	bcf	3,6	;RP1=0, select bank0
 10079  1BB0  1588               	bsf	8,3	;volatile
 10080  1BB1                     l2607:	
 10081                           
 10082                           ;./LCD_driver.c: 40:     _delay((unsigned long)((2)*(80000000/4000.0)));
 10083  1BB1  3034               	movlw	52
 10084  1BB2  00F2               	movwf	??_Lcd_Cmd+1
 10085  1BB3  30F1               	movlw	241
 10086  1BB4  00F1               	movwf	??_Lcd_Cmd
 10087  1BB5                     u5837:	
 10088  1BB5  0BF1               	decfsz	??_Lcd_Cmd,f
 10089  1BB6  2BB5               	goto	u5837
 10090  1BB7  0BF2               	decfsz	??_Lcd_Cmd+1,f
 10091  1BB8  2BB5               	goto	u5837
 10092  1BB9  2BBA               	nop2
 10093  1BBA                     l2609:	
 10094                           
 10095                           ;./LCD_driver.c: 41:     RD3 = 0;
 10096  1BBA  1283               	bcf	3,5	;RP0=0, select bank0
 10097  1BBB  1303               	bcf	3,6	;RP1=0, select bank0
 10098  1BBC  1188               	bcf	8,3	;volatile
 10099  1BBD                     l50:	
 10100  1BBD  0008               	return
 10101  1BBE                     __end_of_Lcd_Cmd:	
 10102                           
 10103                           	psect	text30
 10104  1BD9                     __ptext30:	
 10105 ;; *************** function _Lcd_SetBit *****************
 10106 ;; Defined at:
 10107 ;;		line 12 in file "./LCD_driver.c"
 10108 ;; Parameters:    Size  Location     Type
 10109 ;;  data_bit        1    wreg     unsigned char 
 10110 ;; Auto vars:     Size  Location     Type
 10111 ;;  data_bit        1    0[COMMON] unsigned char 
 10112 ;; Return value:  Size  Location     Type
 10113 ;;                  1    wreg      void 
 10114 ;; Registers used:
 10115 ;;		wreg
 10116 ;; Tracked objects:
 10117 ;;		On entry : 0/0
 10118 ;;		On exit  : 0/0
 10119 ;;		Unchanged: 0/0
 10120 ;; Data sizes:     COMMON   BANK0   BANK1   BANK3   BANK2
 10121 ;;      Params:         0       0       0       0       0
 10122 ;;      Locals:         1       0       0       0       0
 10123 ;;      Temps:          0       0       0       0       0
 10124 ;;      Totals:         1       0       0       0       0
 10125 ;;Total ram usage:        1 bytes
 10126 ;; Hardware stack levels used:    1
 10127 ;; This function calls:
 10128 ;;		Nothing
 10129 ;; This function is called by:
 10130 ;;		_Lcd_Cmd
 10131 ;;		_Lcd_Start
 10132 ;;		_Lcd_Print_Char
 10133 ;; This function uses a non-reentrant model
 10134 ;;
 10135                           
 10136                           
 10137                           ;psect for function _Lcd_SetBit
 10138  1BD9                     _Lcd_SetBit:	
 10139                           
 10140                           ;incstack = 0
 10141                           ; Regs used in _Lcd_SetBit: [wreg]
 10142                           ;Lcd_SetBit@data_bit stored from wreg
 10143  1BD9  00F0               	movwf	Lcd_SetBit@data_bit
 10144  1BDA                     l2127:	
 10145                           
 10146                           ;./LCD_driver.c: 12: void Lcd_SetBit(char data_bit);./LCD_driver.c: 13: {;./LCD_driver.c
      +                          : 14:     if(data_bit & 1)
 10147  1BDA  1C70               	btfss	Lcd_SetBit@data_bit,0
 10148  1BDB  2BDD               	goto	u2941
 10149  1BDC  2BDE               	goto	u2940
 10150  1BDD                     u2941:	
 10151  1BDD  2BE2               	goto	l39
 10152  1BDE                     u2940:	
 10153  1BDE                     l2129:	
 10154                           
 10155                           ;./LCD_driver.c: 15:         RD4 = 1;
 10156  1BDE  1283               	bcf	3,5	;RP0=0, select bank0
 10157  1BDF  1303               	bcf	3,6	;RP1=0, select bank0
 10158  1BE0  1608               	bsf	8,4	;volatile
 10159  1BE1  2BE5               	goto	l40
 10160  1BE2                     l39:	
 10161                           ;./LCD_driver.c: 16:     else
 10162                           
 10163                           
 10164                           ;./LCD_driver.c: 17:         RD4 = 0;
 10165  1BE2  1283               	bcf	3,5	;RP0=0, select bank0
 10166  1BE3  1303               	bcf	3,6	;RP1=0, select bank0
 10167  1BE4  1208               	bcf	8,4	;volatile
 10168  1BE5                     l40:	
 10169                           
 10170                           ;./LCD_driver.c: 19:     if(data_bit & 2)
 10171  1BE5  1CF0               	btfss	Lcd_SetBit@data_bit,1
 10172  1BE6  2BE8               	goto	u2951
 10173  1BE7  2BE9               	goto	u2950
 10174  1BE8                     u2951:	
 10175  1BE8  2BEB               	goto	l41
 10176  1BE9                     u2950:	
 10177  1BE9                     l2131:	
 10178                           
 10179                           ;./LCD_driver.c: 20:         RD5 = 1;
 10180  1BE9  1688               	bsf	8,5	;volatile
 10181  1BEA  2BEC               	goto	l42
 10182  1BEB                     l41:	
 10183                           ;./LCD_driver.c: 21:     else
 10184                           
 10185                           
 10186                           ;./LCD_driver.c: 22:         RD5 = 0;
 10187  1BEB  1288               	bcf	8,5	;volatile
 10188  1BEC                     l42:	
 10189                           
 10190                           ;./LCD_driver.c: 24:     if(data_bit & 4)
 10191  1BEC  1D70               	btfss	Lcd_SetBit@data_bit,2
 10192  1BED  2BEF               	goto	u2961
 10193  1BEE  2BF0               	goto	u2960
 10194  1BEF                     u2961:	
 10195  1BEF  2BF2               	goto	l43
 10196  1BF0                     u2960:	
 10197  1BF0                     l2133:	
 10198                           
 10199                           ;./LCD_driver.c: 25:         RD6 = 1;
 10200  1BF0  1708               	bsf	8,6	;volatile
 10201  1BF1  2BF3               	goto	l44
 10202  1BF2                     l43:	
 10203                           ;./LCD_driver.c: 26:     else
 10204                           
 10205                           
 10206                           ;./LCD_driver.c: 27:         RD6 = 0;
 10207  1BF2  1308               	bcf	8,6	;volatile
 10208  1BF3                     l44:	
 10209                           
 10210                           ;./LCD_driver.c: 29:     if(data_bit & 8)
 10211  1BF3  1DF0               	btfss	Lcd_SetBit@data_bit,3
 10212  1BF4  2BF6               	goto	u2971
 10213  1BF5  2BF7               	goto	u2970
 10214  1BF6                     u2971:	
 10215  1BF6  2BF9               	goto	l45
 10216  1BF7                     u2970:	
 10217  1BF7                     l2135:	
 10218                           
 10219                           ;./LCD_driver.c: 30:         RD7 = 1;
 10220  1BF7  1788               	bsf	8,7	;volatile
 10221  1BF8  2BFA               	goto	l47
 10222  1BF9                     l45:	
 10223                           ;./LCD_driver.c: 31:     else
 10224                           
 10225                           
 10226                           ;./LCD_driver.c: 32:         RD7 = 0;
 10227  1BF9  1388               	bcf	8,7	;volatile
 10228  1BFA                     l47:	
 10229  1BFA  0008               	return
 10230  1BFB                     __end_of_Lcd_SetBit:	
 10231                           
 10232                           	psect	text31
 10233  0801                     __ptext31:	
 10234 ;; *************** function _ADC_Init *****************
 10235 ;; Defined at:
 10236 ;;		line 52 in file "main.c"
 10237 ;; Parameters:    Size  Location     Type
 10238 ;;		None
 10239 ;; Auto vars:     Size  Location     Type
 10240 ;;		None
 10241 ;; Return value:  Size  Location     Type
 10242 ;;                  1    wreg      void 
 10243 ;; Registers used:
 10244 ;;		wreg
 10245 ;; Tracked objects:
 10246 ;;		On entry : 0/0
 10247 ;;		On exit  : 0/0
 10248 ;;		Unchanged: 0/0
 10249 ;; Data sizes:     COMMON   BANK0   BANK1   BANK3   BANK2
 10250 ;;      Params:         0       0       0       0       0
 10251 ;;      Locals:         0       0       0       0       0
 10252 ;;      Temps:          0       0       0       0       0
 10253 ;;      Totals:         0       0       0       0       0
 10254 ;;Total ram usage:        0 bytes
 10255 ;; Hardware stack levels used:    1
 10256 ;; This function calls:
 10257 ;;		Nothing
 10258 ;; This function is called by:
 10259 ;;		_main
 10260 ;; This function uses a non-reentrant model
 10261 ;;
 10262                           
 10263                           
 10264                           ;psect for function _ADC_Init
 10265  0801                     _ADC_Init:	
 10266  0801                     l2037:	
 10267                           ;incstack = 0
 10268                           ; Regs used in _ADC_Init: [wreg]
 10269                           
 10270                           
 10271                           ;main.c: 54:     TRISA = 0x2;
 10272  0801  3002               	movlw	2
 10273  0802  1683               	bsf	3,5	;RP0=1, select bank1
 10274  0803  1303               	bcf	3,6	;RP1=0, select bank1
 10275  0804  0085               	movwf	5	;volatile
 10276                           
 10277                           ;main.c: 55:     ANSEL = 0x2;
 10278  0805  3002               	movlw	2
 10279  0806  1683               	bsf	3,5	;RP0=1, select bank3
 10280  0807  1703               	bsf	3,6	;RP1=1, select bank3
 10281  0808  0088               	movwf	8	;volatile
 10282                           
 10283                           ;main.c: 56:     ADCON0 = 0x5;
 10284  0809  3005               	movlw	5
 10285  080A  1283               	bcf	3,5	;RP0=0, select bank0
 10286  080B  1303               	bcf	3,6	;RP1=0, select bank0
 10287  080C  009F               	movwf	31	;volatile
 10288                           
 10289                           ;main.c: 57:     ADCON1 = 0x80;
 10290  080D  3080               	movlw	128
 10291  080E  1683               	bsf	3,5	;RP0=1, select bank1
 10292  080F  1303               	bcf	3,6	;RP1=0, select bank1
 10293  0810  009F               	movwf	31	;volatile
 10294  0811                     l90:	
 10295  0811  0008               	return
 10296  0812                     __end_of_ADC_Init:	
 10297  007E                     btemp	set	126	;btemp
 10298  007E                     wtemp0	set	126


Data Sizes:
    Strings     18
    Constant    144
    Data        0
    BSS         26
    Persistent  0
    Stack       0

Auto Spaces:
    Space          Size  Autos    Used
    COMMON           14     14      14
    BANK0            80     78      78
    BANK1            80     38      64
    BANK3            96      0       0
    BANK2            96      0       0

Pointer List with Targets:

    sprintf@f	PTR const unsigned char  size(1) Largest target is 5
		 -> STR_1(CODE[5]), 

    sprintf@sp	PTR unsigned char  size(1) Largest target is 16
		 -> char_data(BANK1[16]), 

    sprintf@ap	PTR void [1] size(1) Largest target is 2
		 -> ?_sprintf(BANK1[2]), 

    Lcd_Print_String@a	PTR unsigned char  size(2) Largest target is 16
		 -> STR_2(CODE[13]), char_data(BANK1[16]), 


Critical Paths under _main in COMMON

    _Lcd_Start->_Lcd_Cmd
    _ADC_Read->___xxtofl
    _sprintf->___lldiv
    _sprintf->___xxtofl
    ___awdiv->___awmod
    _fround->___lwdiv
    ___lwdiv->___lwmod
    ___flmul->___lwdiv
    ___xxtofl->___wmul
    ___flsub->___xxtofl
    ___fldiv->___xxtofl
    _Lcd_Set_Cursor->_Lcd_Cmd
    _Lcd_Print_String->_Lcd_Print_Char
    _Lcd_Print_Char->_Lcd_SetBit
    _Lcd_Clear->_Lcd_Cmd
    _Lcd_Cmd->_Lcd_SetBit

Critical Paths under _main in BANK0

    _sprintf->___flsub
    _scale->___flmul
    _fround->___flmul
    ___flmul->___awdiv
    ___fltol->_scale
    ___flsub->___fladd
    ___fladd->_fround
    ___fldiv->___xxtofl

Critical Paths under _main in BANK1

    _main->_ADC_Read
    _ADC_Read->_sprintf

Critical Paths under _main in BANK3

    None.

Critical Paths under _main in BANK2

    None.

Call Graph Tables:

 ---------------------------------------------------------------------------------
 (Depth) Function   	        Calls       Base Space   Used Autos Params    Refs
 ---------------------------------------------------------------------------------
 (0) _main                                                 0     0      0   38799
                           _ADC_Init
                           _ADC_Read
                          _Lcd_Clear
                          _Lcd_Start
 ---------------------------------------------------------------------------------
 (1) _Lcd_Start                                            0     0      0     198
                            _Lcd_Cmd
                         _Lcd_SetBit
 ---------------------------------------------------------------------------------
 (1) _ADC_Read                                             3     3      0   38491
                                             35 BANK1      3     3      0
                          _Lcd_Clear
                   _Lcd_Print_String
                     _Lcd_Set_Cursor
                            ___fldiv
                            ___flmul
                             ___wmul
                           ___xxtofl
                            _sprintf
 ---------------------------------------------------------------------------------
 (2) _sprintf                                             42    37      5   30589
                                              0 BANK1     35    30      5
                            ___awdiv
                            ___fladd
                             ___fleq
                             ___flge
                            ___flmul
                            ___flneg
                            ___flsub
                            ___fltol
                            ___lldiv
                            ___llmod
                             ___wmul
                           ___xxtofl
                         __div_to_l_
                        __tdiv_to_l_
                             _fround
                              _scale
 ---------------------------------------------------------------------------------
 (3) _scale                                               19    15      4    7560
                                             30 BANK0     19    15      4
                            ___awdiv
                            ___awmod
                            ___flmul
 ---------------------------------------------------------------------------------
 (4) ___awmod                                              7     3      4    1208
                                              0 COMMON     7     3      4
 ---------------------------------------------------------------------------------
 (4) ___awdiv                                              9     5      4    1364
                                              7 COMMON     5     1      4
                                              0 BANK0      4     4      0
                            ___awmod (ARG)
 ---------------------------------------------------------------------------------
 (3) _fround                                              20    16      4    6023
                                             30 BANK0     20    16      4
                            ___flmul
                            ___lwdiv
                            ___lwmod
 ---------------------------------------------------------------------------------
 (4) ___lwmod                                              6     2      4     615
                                              0 COMMON     6     2      4
 ---------------------------------------------------------------------------------
 (4) ___lwdiv                                              8     4      4     618
                                              6 COMMON     8     4      4
                            ___lwmod (ARG)
 ---------------------------------------------------------------------------------
 (4) ___flmul                                             26    18      8    4545
                                              4 BANK0     26    18      8
                          __Umul8_16
                            ___awdiv (ARG)
                            ___awmod (ARG)
                            ___lwdiv (ARG)
                            ___lwmod (ARG)
 ---------------------------------------------------------------------------------
 (5) __Umul8_16                                            9     7      2     799
                                              0 COMMON     9     7      2
 ---------------------------------------------------------------------------------
 (3) __tdiv_to_l_                                         18    10      8     455
                                              0 COMMON    12     4      8
                                              0 BANK0      6     6      0
 ---------------------------------------------------------------------------------
 (3) __div_to_l_                                          15     7      8     455
                                              0 COMMON     9     1      8
                                              0 BANK0      6     6      0
 ---------------------------------------------------------------------------------
 (3) ___xxtofl                                            14    10      4     474
                                              6 COMMON     8     4      4
                                              0 BANK0      6     6      0
                             ___wmul (ARG)
 ---------------------------------------------------------------------------------
 (3) ___wmul                                               6     2      4     396
                                              0 COMMON     6     2      4
 ---------------------------------------------------------------------------------
 (3) ___llmod                                             10     2      8     615
                                              0 COMMON    10     2      8
 ---------------------------------------------------------------------------------
 (3) ___lldiv                                             14     6      8     466
                                              0 COMMON    14     6      8
 ---------------------------------------------------------------------------------
 (3) ___fltol                                             11     7      4     457
                                             49 BANK0     11     7      4
                            ___flmul (ARG)
                              _scale (ARG)
 ---------------------------------------------------------------------------------
 (3) ___flsub                                              8     0      8    2485
                                             70 BANK0      8     0      8
                            ___fladd
                           ___xxtofl (ARG)
 ---------------------------------------------------------------------------------
 (4) ___fladd                                             20    12      8    2288
                                             50 BANK0     20    12      8
                             _fround (ARG)
 ---------------------------------------------------------------------------------
 (3) ___flneg                                              4     0      4     121
                                              0 COMMON     4     0      4
 ---------------------------------------------------------------------------------
 (3) ___flge                                              12     4      8     790
                                              0 COMMON    12     4      8
 ---------------------------------------------------------------------------------
 (3) ___fleq                                              12     4      8     394
                                              0 COMMON    12     4      8
 ---------------------------------------------------------------------------------
 (2) ___fldiv                                             26    18      8    1425
                                              6 BANK0     26    18      8
                             ___wmul (ARG)
                           ___xxtofl (ARG)
 ---------------------------------------------------------------------------------
 (2) _Lcd_Set_Cursor                                       7     6      1     532
                                              4 COMMON     7     6      1
                            _Lcd_Cmd
 ---------------------------------------------------------------------------------
 (2) _Lcd_Print_String                                     7     5      2     420
                                              5 COMMON     7     5      2
                     _Lcd_Print_Char
 ---------------------------------------------------------------------------------
 (3) _Lcd_Print_Char                                       4     4      0     178
                                              1 COMMON     4     4      0
                         _Lcd_SetBit
 ---------------------------------------------------------------------------------
 (1) _Lcd_Clear                                            0     0      0     110
                            _Lcd_Cmd
 ---------------------------------------------------------------------------------
 (2) _Lcd_Cmd                                              3     3      0     110
                                              1 COMMON     3     3      0
                         _Lcd_SetBit
 ---------------------------------------------------------------------------------
 (2) _Lcd_SetBit                                           1     1      0      88
                                              0 COMMON     1     1      0
 ---------------------------------------------------------------------------------
 (1) _ADC_Init                                             0     0      0       0
 ---------------------------------------------------------------------------------
 Estimated maximum stack depth 5
 ---------------------------------------------------------------------------------

 Call Graph Graphs:

 _main (ROOT)
   _ADC_Init
   _ADC_Read
     _Lcd_Clear
       _Lcd_Cmd
         _Lcd_SetBit
     _Lcd_Print_String
       _Lcd_Print_Char
         _Lcd_SetBit
     _Lcd_Set_Cursor
       _Lcd_Cmd
         _Lcd_SetBit
     ___fldiv
       ___wmul (ARG)
       ___xxtofl (ARG)
         ___wmul (ARG)
     ___flmul
       __Umul8_16
       ___awdiv (ARG)
         ___awmod (ARG)
       ___awmod (ARG)
       ___lwdiv (ARG)
         ___lwmod (ARG)
       ___lwmod (ARG)
     ___wmul
     ___xxtofl
       ___wmul (ARG)
     _sprintf
       ___awdiv
         ___awmod (ARG)
       ___fladd
         _fround (ARG)
           ___flmul
             __Umul8_16
             ___awdiv (ARG)
               ___awmod (ARG)
             ___awmod (ARG)
             ___lwdiv (ARG)
               ___lwmod (ARG)
             ___lwmod (ARG)
           ___lwdiv
             ___lwmod (ARG)
           ___lwmod
       ___fleq
       ___flge
       ___flmul
         __Umul8_16
         ___awdiv (ARG)
           ___awmod (ARG)
         ___awmod (ARG)
         ___lwdiv (ARG)
           ___lwmod (ARG)
         ___lwmod (ARG)
       ___flneg
       ___flsub
         ___fladd
           _fround (ARG)
             ___flmul
               __Umul8_16
               ___awdiv (ARG)
                 ___awmod (ARG)
               ___awmod (ARG)
               ___lwdiv (ARG)
                 ___lwmod (ARG)
               ___lwmod (ARG)
             ___lwdiv
               ___lwmod (ARG)
             ___lwmod
         ___xxtofl (ARG)
           ___wmul (ARG)
       ___fltol
         ___flmul (ARG)
           __Umul8_16
           ___awdiv (ARG)
             ___awmod (ARG)
           ___awmod (ARG)
           ___lwdiv (ARG)
             ___lwmod (ARG)
           ___lwmod (ARG)
         _scale (ARG)
           ___awdiv
             ___awmod (ARG)
           ___awmod
           ___flmul
             __Umul8_16
             ___awdiv (ARG)
               ___awmod (ARG)
             ___awmod (ARG)
             ___lwdiv (ARG)
               ___lwmod (ARG)
             ___lwmod (ARG)
       ___lldiv
       ___llmod
       ___wmul
       ___xxtofl
         ___wmul (ARG)
       __div_to_l_
       __tdiv_to_l_
       _fround
         ___flmul
           __Umul8_16
           ___awdiv (ARG)
             ___awmod (ARG)
           ___awmod (ARG)
           ___lwdiv (ARG)
             ___lwmod (ARG)
           ___lwmod (ARG)
         ___lwdiv
           ___lwmod (ARG)
         ___lwmod
       _scale
         ___awdiv
           ___awmod (ARG)
         ___awmod
         ___flmul
           __Umul8_16
           ___awdiv (ARG)
             ___awmod (ARG)
           ___awmod (ARG)
           ___lwdiv (ARG)
             ___lwmod (ARG)
           ___lwmod (ARG)
   _Lcd_Clear
     _Lcd_Cmd
       _Lcd_SetBit
   _Lcd_Start
     _Lcd_Cmd
       _Lcd_SetBit
     _Lcd_SetBit

 Address spaces:
Name               Size   Autos  Total    Cost      Usage
BITCOMMON            E      0       0       0        0.0%
EEDATA             100      0       0       0        0.0%
NULL                 0      0       0       0        0.0%
CODE                 0      0       0       0        0.0%
COMMON               E      E       E       1      100.0%
BITSFR0              0      0       0       1        0.0%
SFR0                 0      0       0       1        0.0%
BITSFR1              0      0       0       2        0.0%
SFR1                 0      0       0       2        0.0%
STACK                0      0       0       2        0.0%
ABS                  0      0      9C       3        0.0%
BITBANK0            50      0       0       4        0.0%
BITSFR3              0      0       0       4        0.0%
SFR3                 0      0       0       4        0.0%
BANK0               50     4E      4E       5       97.5%
BITSFR2              0      0       0       5        0.0%
SFR2                 0      0       0       5        0.0%
BITBANK1            50      0       0       6        0.0%
BANK1               50     26      40       7       80.0%
BITBANK3            60      0       0       8        0.0%
BANK3               60      0       0       9        0.0%
BITBANK2            60      0       0      10        0.0%
BANK2               60      0       0      11        0.0%
DATA                 0      0      9C      12        0.0%


Microchip Technology PIC Macro Assembler V2.10 build 88905656 
Symbol Table                                                                                   Wed Oct 30 21:52:28 2019

              ___fldiv@aexp 003F                ___fldiv@bexp 003E                           pc 0002  
              ___fldiv@sign 0037                 __CFG_CP$OFF 0000                          l40 1BE5  
                        l41 1BEB                          l42 1BEC                          l50 1BBD  
                        l43 1BF2                          l44 1BF3                          l45 1BF9  
                        l53 10C1                          l62 1CE1                          l47 1BFA  
                        l39 1BE2                          l71 1D23                          l65 002D  
                        l90 0811                          l59 1E07                          l93 0820  
                        l96 093F                ___awdiv@sign 0021                          fsr 0004  
       ___wmul@multiplicand 0072         __Umul8_16@word_mpld 0076                 __CFG_LVP$ON 0000  
                       l203 0C9E                         l217 0256                         l242 0631  
                       l263 1C2B                         l416 1F83                         l265 1C43  
                       l433 139A                         l249 0675                         l450 1DA0  
                       l434 12FF                         l451 1DB5                         l611 174D  
                       l603 17FF                         l259 07F2                         l444 138D  
                       l196 0238                         l621 1793                         l437 135D  
                       l429 1EB4                         l454 10DE                         l462 1BA3  
                       l615 1771                         l519 1E5B                         l632 17F3  
                       l624 17D1                         l480 12DC                         l449 1D84  
                       l457 114A                         l633 17FF                         l473 1FEA  
                       l481 124E                         l458 1163                         l466 1FFF  
                       l730 11CD                         l299 1F1A                         l491 12CF  
                       l636 1C1E                         l476 1FFF                         l724 1188  
                       l484 129F                         l670 156B                         l662 14E9  
                       l646 13F7                         l590 15DB                         l726 121F  
                       l648 1577                         l737 11E9                         l569 1D67  
                       l594 1682                         l738 11F5                         l747 1C58  
                       l579 1CA4                         l668 155B                         l596 1659  
                       l692 0F6B                         l749 1C6A                         l686 0FFF  
                       l698 0FF3                         _RD2 0042                         _RD3 0043  
                       _RD4 0044                         _RD5 0045                         _RD6 0046  
                       _RD7 0047                __CFG_CPD$OFF 0000                         fsr0 0004  
                       indf 0000                ___awmod@sign 0076                __CFG_IESO$ON 0000  
              ___flmul@aexp 0036                ___flmul@bexp 0037                 _sprintf$780 00AA  
              ___flmul@sign 0031                ___flmul@temp 003C                ___flmul@prod 0038  
              ___fltol@exp1 005B                        l3001 1D07                        l2121 1C61  
                      l2113 1C45                        l2201 1E85                        l2131 1BE9  
                      l2123 1C66                        l2115 1C47                        l2203 1E89  
                      l2211 1EA6                        l3011 0253                        l3003 023C  
                      l2037 0801                        l2133 1BF0                        l2301 15C3  
                      l2117 1C4E                        l2221 1D26                        l2141 1F22  
                      l2213 1EAB                        l2205 1E93                        l3101 05A9  
                      l3021 0282                        l3005 0241                        l2135 1BF7  
                      l2127 1BDA                        l2311 15E1                        l2303 15C8  
                      l2119 1C52                        l2231 1D3E                        l2223 1D2C  
                      l2151 1F36                        l2143 1F27                        l2215 1EB0  
                      l2207 1E99                        l3111 0606                        l3103 05B3  
                      l3031 02CA                        l3023 0290                        l3015 0258  
                      l3007 0247                        l2129 1BDE                        l3201 13D9  
                      l2401 1755                        l2321 15F5                        l2313 15E5  
                      l2305 15D0                        l2233 1D4F                        l2225 1D2F  
                      l2241 1D63                        l2161 1F4C                        l2153 1F38  
                      l2145 1F29                        l2137 1F1B                        l2209 1EA0  
                      l3121 064C                        l3113 0625                        l3105 05BF  
                      l3041 030B                        l3033 02CE                        l3025 0294  
                      l3017 0272                        l3009 024E                        l3211 13ED  
                      l3203 13DA                        l2411 1770                        l2403 175A  
                      l2331 1609                        l2323 15F9                        l2315 15E9  
                      l2307 15D1                        l2235 1D55                        l2227 1D36  
                      l2219 1D24                        l2251 1C7B                        l2171 1F6F  
                      l2163 1F50                        l2155 1F3E                        l2147 1F2D  
                      l2139 1F1E                        l3131 0683                        l3123 0659  
                      l3115 0639                        l3107 05C6                        l3051 0392  
                      l3043 031E                        l3035 02E7                        l3027 02AD  
                      l3019 027E                        l3301 154E                        l3205 13DF  
                      l3213 13EF                        l2413 1775                        l2421 1781  
                      l2341 161D                        l2333 160D                        l2325 15FD  
                      l2317 15ED                        l2309 15D3                        l2501 0D03  
                      l2237 1D56                        l2229 1D3A                        l2261 1C9A  
                      l2253 1C7F                        l2245 1C6B                        l2165 1F61  
                      l2157 1F41                        l2173 1F75                        l2149 1F32  
                      l2181 1E5C                        l3141 0742                        l3133 068A  
                      l3125 0668                        l3117 0642                        l3109 05CB  
                      l3061 03D7                        l3053 03AB                        l3045 0322  
                      l3037 02F2                        l3029 02C6                        l3311 1567  
                      l3303 1552                        l3231 1438                        l3215 13FF  
                      l3223 1418                        l3207 13E4                        l2415 1778  
                      l2407 1763                        l2423 1785                        l2351 165D  
                      l2343 1621                        l2335 1611                        l2327 1601  
                      l2319 15F1                        l2271 1585                        l2511 0D46  
                      l2239 1D5D                        l2255 1C83                        l2247 1C71  
                      l2263 1CA0                        l2175 1F7A                        l2167 1F67  
                      l2159 1F48                        l2191 1E6C                        l2183 1E5D  
                      l3151 07B7                        l3143 0761                        l3135 068E  
                      l3127 066F                        l3119 0646                        l3071 047A  
                      l3063 041C                        l3055 03B4                        l3047 0328  
                      l3039 02F8                        l2601 1BA5                        l3305 155A  
                      l3241 1457                        l3233 1440                        l3225 141D  
                      l3217 140B                        l3209 13EC                        l2441 17CD  
                      l2433 1798                        l2425 1786                        l2417 177A  
                      l2409 176C                        l2361 1676                        l2353 1666  
                      l2337 1615                        l2329 1605                        l2345 1625  
                      l2281 159C                        l2273 1589                        l2521 0DCF  
                      l2513 0D62                        l2505 0D0C                        l2257 1C8D  
                      l2249 1C74                        l2177 1F7F                        l2169 1F68  
                      l2193 1E71                        l2185 1E61                        l3153 07BB  
                      l3145 076D                        l3137 06AC                        l3129 067E  
                      l3073 0495                        l3065 0429                        l3057 03CF  
                      l3049 0347                        l3321 081D                        l2603 1BA8  
                      l2611 0004                        l3307 1561                        l3251 1489  
                      l3243 1469                        l3235 1448                        l3219 140F  
                      l2451 17E9                        l2443 17D6                        l2435 179D  
                      l2427 178A                        l2419 177F                        l2371 1694  
                      l2355 1668                        l2363 167A                        l2347 1626  
                      l2339 1619                        l2291 15B2                        l2283 159D  
                      l2275 158A                        l2267 1578                        l2531 0E42  
                      l2523 0DDF                        l2515 0D8E                        l2507 0D1C  
                      l2259 1C93                        l2195 1E77                        l2187 1E66  
                      l3155 07C1                        l3139 0707                        l3147 07A8  
                      l3091 0570                        l3083 04E3                        l3075 049E  
                      l3067 0444                        l3059 03D7                        l3163 07DC  
                      l3331 08F7                        l3323 0824                        l2605 1BAE  
                      l2621 0023                        l2613 000E                        l3309 1565  
                      l3261 14AA                        l3253 148A                        l3245 146D  
                      l3237 1450                        l3229 1426                        l3181 13AC  
                      l2453 17ED                        l2445 17DB                        l2437 17AB  
                      l2429 1790                        l2381 16BE                        l2373 16AB  
                      l2365 1686                        l2357 166C                        l2349 163D  
                      l2293 15B3                        l2277 158F                        l2285 159F  
                      l2269 157F                        l2701 1264                        l2541 0EEF  
                      l2533 0E5F                        l2525 0DFC                        l2517 0DAA  
                      l2509 0D29                        l2461 0C9F                        l2197 1E7A  
                      l2189 1E68                        l3149 07B0                        l3077 04A6  
                      l3069 046B                        l3085 04EC                        l3157 07C8  
                      l3165 07EE                        l3341 0927                        l3333 0909  
                      l3325 082A                        l3317 1CA5                        l2607 1BB1  
                      l2623 0029                        l2615 0011                        l3271 14C3  
                      l3263 14AC                        l3255 1498                        l3247 146E  
                      l3239 1452                        l3191 13C0                        l3183 13AD  
                      l3175 139B                        l2455 17EF                        l2447 17E3  
                      l2439 17AF                        l2391 16E7                        l2383 16C2  
                      l2375 16AF                        l2367 168B                        l2359 166D  
                      l2295 15B9                        l2287 15A7                        l2279 1594  
                      l2711 1290                        l2703 1266                        l2551 0F3B  
                      l2543 0F17                        l2535 0E8C                        l2527 0E0C  
                      l2519 0DC6                        l2471 0CB6                        l2463 0CA6  
                      l2199 1E81                        l3159 07D4                        l3087 0521  
                      l3079 04C4                        l3343 0930                        l3335 090E  
                      l3327 0879                        l3319 0812                        l3351 1BCB  
                      l2609 1BBA                        l2625 002C                        l2617 001F  
                      l3281 14E6                        l3265 14B5                        l3273 14C9  
                      l3249 1477                        l3257 149C                        l3185 13B2  
                      l3193 13C2                        l3177 13A2                        l2457 17FA  
                      l2449 17E8                        l2393 1725                        l2385 16C3  
                      l2377 16B3                        l2297 15BD                        l2289 15AC  
                      l2713 1291                        l2705 126F                        l2561 0F50  
                      l2553 0F3C                        l2545 0F20                        l2537 0E9C  
                      l2529 0E29                        l2481 0CD2                        l2473 0CBB  
                      l2465 0CAC                        l2641 01F5                        l3097 0572  
                      l3089 056E                        l3337 0916                        l3329 08B8  
                      l3353 1BD0                        l3345 1BBE                        l2619 0022  
                      l3291 1505                        l3275 14CD                        l3267 14B9  
                      l3259 14A2                        l3195 13CA                        l3187 13B7  
                      l3179 13A8                        l2459 17FE                        l2395 172B  
                      l2387 16CC                        l2379 16BC                        l2299 15BE  
                      l2811 1ED9                        l2803 1EB5                        l2731 12C4  
                      l2723 12AB                        l2715 1299                        l2707 1278  
                      l2571 0F75                        l2563 0F54                        l2555 0F45  
                      l2547 0F2E                        l2539 0EC9                        l2491 0CE7  
                      l2483 0CD8                        l2475 0CC3                        l2467 0CB0  
                      l2635 0144                        l2627 0031                        l2651 0950  
                      l3339 091F                        l3347 1BC1                        l3293 151E  
                      l3285 14EE                        l3277 14CE                        l3269 14BA  
                      l3197 13CF                        l3189 13BF                        l2397 1730  
                      l2389 16D1                        l2901 1FF4                        l2821 1F0C  
                      l2813 1EE2                        l2805 1EC5                        l2733 12D4  
                      l2717 12A3                        l2725 12BD                        l2709 1286  
                      l2581 0FB3                        l2573 0F83                        l2565 0F68  
                      l2549 0F37                        l2557 0F4B                        l2493 0CEF  
                      l2485 0CDC                        l2477 0CC5                        l2469 0CB1  
                      l2637 014A                        l2629 0037                        l2645 0943  
                      l3349 1BC6                        l3287 14F3                        l3295 1524  
                      l3279 14D2                        l3199 13D5                        l2831 1D98  
                      l2399 173F                        l2815 1EF4                        l2807 1EC8  
                      l2823 1F12                        l2911 1E24                        l2903 1E08  
                      l2751 1308                        l2743 12F3                        l2591 0FE7  
                      l2583 0FBE                        l2575 0F87                        l2559 0F4F  
                      l2495 0CF1                        l2487 0CDD                        l2479 0CCD  
                      l2663 0AC7                        l2647 0947                        l3297 1531  
                      l3289 1501                        l2833 1DB2                        l2841 10D6  
                      l2817 1F02                        l2809 1ED5                        l2913 1E36  
                      l2905 1E10                        l2761 133F                        l2753 1319  
                      l2737 12DD                        l2593 0FEB                        l2585 0FCD  
                      l2577 0FA0                        l2569 0F70                        l2497 0CF9  
                      l2489 0CE2                        l2681 0C72                        l2657 0A38  
                      l2649 0949                        l3385 026A                        l3299 153F  
                      l2835 1DB4                        l2827 1D68                        l2851 1126  
                      l2843 10F2                        l2923 1BFB                        l2819 1F03  
                      l2915 1E44                        l2907 1E13                        l2931 116C  
                      l2763 134D                        l2755 131B                        l2739 12EA  
                      l2691 123C                        l2595 0FEC                        l2587 0FD7  
                      l2579 0FA6                        l2499 0CFE                        l2675 0BE3  
                      l2659 0A3F                        l2667 0AF4                        l2829 1D7C  
                      l2853 1160                        l2845 10FA                        l2861 1BA1  
                      l2925 1BFF                        l2917 1E4D                        l2909 1E20  
                      l2941 1199                        l2933 1170                        l2765 134E  
                      l2757 1324                        l2749 1300                        l2685 1220  
                      l2597 0FF7                        l2589 0FD9                        l2677 0BEA  
                      l2669 0AFB                        l2855 1162                        l2847 10FE  
                      l2839 10C2                        l2863 1BA3                        l2919 1E53  
                      l2791 1C21                        l2951 11C4                        l2943 119E  
                      l2935 1180                        l2783 1382                        l2775 1369  
                      l2767 1357                        l2759 132D                        l2687 1233  
                      l2849 1122                        l2881 1FBA                        l2873 1F9A  
                      l2793 1C25                        l2961 11F7                        l2953 11D4  
                      l2945 11AB                        l2937 1190                        l2929 1167  
                      l2785 1392                        l2769 1361                        l2777 137B  
                      l2697 124F                        l2859 1B99                        l2883 1FBE  
                      l2891 1FD8                        l2875 1FAF                        l2867 1F84  
                      l2795 1C32                        l2963 120D                        l2955 11DF  
                      l2947 11B2                        l2699 1255                        l2973 10B5  
                      l2981 1DD2                        l2877 1FB0                        l2869 1F91  
                      l2797 1C39                        l2789 1C1F                        l2965 1212  
                      l2957 11E3                        l2949 11B6                        l2991 1DFB  
                      l2983 1DD8                        l2975 1DB7                        l2879 1FB8  
                      l2799 1C3F                        l2967 1216                        l2959 11ED  
                      l2993 1E01                        l2977 1DBC                        l2985 1DDF  
                      l2897 1FDF                        l2889 1FC6                        l2969 1217  
                      l2995 1CE2                        l2987 1DE5                        l2979 1DCD  
                      l2899 1FEF                        l2997 1CE5                        l2989 1DF6  
                      l2999 1D01                        STR_1 10AD                        STR_2 10A0  
                      u3000 1F3E                        u3001 1F3D                        u3020 1F50  
                      u3100 1E77                        u3021 1F4F                        u3101 1E76  
                      u3015 1F42                        u3040 1F61                        u3120 1E89  
                      u3041 1F60                        u3121 1E88                        u4010 0F3B  
                      u3210 1D4F                        u3130 1E93                        u4011 0F3A  
                      u3211 1D4E                        u3035 1F51                        u3131 1E92  
                      u3115 1E7B                        u3300 1589                        u4100 0FB3  
                      u3060 1F75                        u3301 1588                        u4101 0FB2  
                      u4005 0F30                        u3205 1D3F                        u3061 1F74  
                      u3045 1F5D                        u3310 158F                        u4110 0FCD  
                      u4030 0F4F                        u3230 1D63                        u3070 1F7A  
                      u3150 1EA6                        u3311 158E                        u4111 0FCC  
                      u4031 0F4E                        u3231 1D62                        u3215 1D4B  
                      u3071 1F79                        u3055 1F69                        u3151 1EA5  
                      u3135 1E8F                        u3400 1648                        u3320 1594  
                      u5000 1E36                        u4120 0FEB                        u4040 0F54  
                      u3240 1C71                        u3160 1EAB                        u3080 1E61  
                      u3401 1646                        u3321 1593                        u5001 1E35  
                      u4121 0FEA                        u4105 0FAF                        u4041 0F53  
                      u4025 0F3E                        u3225 1D57                        u3241 1C70  
                      u3161 1EAA                        u3145 1E9A                        u3081 1E60  
                      u3410 1649                        u3330 15B2                        u4050 0F68  
                      u3170 1D2C                        u3090 1E6C                        u3331 15B1  
                      u4115 0FC9                        u4051 0F67                        u3171 1D2B  
                      u3091 1E6B                        u3500 16B3                        u3420 165D  
                      u3340 15BD                        u5020 1E53                        u4060 0F6F  
                      u3260 1C83                        u4140 0037                        u4220 0947  
                      u3501 16B2                        u3421 165C                        u3341 15BC  
                      u5021 1E52                        u5005 1E32                        u4061 0F6E  
                      u3261 1C82                        u4205 01B4                        u4141 0036  
                      u4221 0946                        u3510 16C2                        u3430 166C  
                      u3350 15C3                        u5110 11E3                        u5030 116C  
                      u4070 0F75                        u3190 1D3E                        u3270 1C8D  
                      u4310 0AFB                        u4230 0950                        u4135 0014  
                      u3511 16C1                        u3431 166B                        u3351 15C2  
                      u5015 1E45                        u5111 11E2                        u5031 116B  
                      u4071 0F74                        u3191 1D3D                        u3271 1C8C  
                      u3255 1C75                        u4215 0200                        u4311 0AFA  
                      u4231 094F                        u3600 1770                        u3360 15C8  
                      u5120 11E9                        u5040 1170                        u4400 124D  
                      u4080 0F87                        u3601 176F                        u3361 15C7  
                      u5121 11E8                        u5105 11D8                        u5041 116F  
                      u4401 124C                        u4081 0F86                        u3185 1D30  
                      u4305 0ACA                        u5210 1CEF                        u3610 1775  
                      u3530 16E7                        u3450 1682                        u3370 15E1  
                      u5130 11ED                        u5050 1190                        u4090 0F96  
                      u3290 1CA0                        u3611 1774                        u3531 16E6  
                      u3451 1681                        u3371 15E0                        u5131 11EC  
                      u5051 118F                        u3291 1C9F                        u3275 1C89  
                      u4155 0054                        u5220 1D11                        u3700 17CD  
                      u3620 177F                        u3460 1686                        u3380 15E5  
                      u5140 1202                        u4420 1286                        u4180 014A  
                      u5300 03CF                        u5205 1DED                        u3701 17CC  
                      u3621 177E                        u3541 16FE                        u3533 16E3  
                      u3525 16C5                        u3461 1685                        u3445 166F  
                      u3381 15E4                        u4421 1285                        u3285 1C94  
                      u4181 0149                        u4165 00AE                        u4325 0B1B  
                      u4245 0970                        u5301 03CE                        u5230 1D23  
                      u3710 17D6                        u3630 1785                        u3550 1712  
                      u3542 16FF                        u3470 168B                        u3390 163D  
                      u5150 1212                        u5070 11B1                        u4510 12D4  
                      u2910 1C52                        u4350 0BEA                        u4270 0A3F  
                      u5310 0429                        u5231 1D22                        u3711 17D5  
                      u3631 1784                        u3551 1713                        u3543 1704  
                      u3471 168A                        u3391 163C                        u5151 1211  
                      u5071 11B0                        u4511 12D3                        u4415 1271  
                      u2911 1C51                        u4095 0F91                        u4175 0103  
                      u4351 0BE9                        u4335 0B57                        u4271 0A3E  
                      u4255 09AC                        u5311 0428                        u3720 17DB  
                      u3640 178A                        u3560 1730                        u3552 1718  
                      u3544 1705                        u5160 1216                        u4520 12EA  
                      u4440 129F                        u3800 0CE2                        u5320 0444  
                      u5240 0247                        u3721 17DA                        u3641 1789  
                      u3561 172F                        u3553 1719                        u3545 170A  
                      u3481 169D                        u5161 1215                        u5145 11FD  
                      u5065 11A3                        u4521 12E9                        u4505 12C6  
                      u4441 129E                        u4425 1282                        u3801 0CE1  
                      u4345 0BA2                        u4265 09F7                        u5321 0443  
                      u5241 0246                        u5170 1DBC                        u3730 17E8  
                      u3650 1790                        u3570 1755                        u3546 170B  
                      u3490 16AF                        u3482 16A4                        u5090 11D3  
                      u4610 137A                        u4530 12FE                        u4450 12A3  
                      u2930 1C66                        u3810 0CE7                        u5410 0638  
                      u5330 046B                        u5250 027E                        u5171 1DBB  
                      u3731 17E7                        u3651 178F                        u3571 1754  
                      u3491 16AE                        u3483 16AB                        u3395 1639  
                      u5091 11D2                        u4611 1379                        u4531 12FD  
                      u4451 12A2                        u4435 1292                        u2931 1C65  
                      u3811 0CE6                        u4195 0167                        u5411 0637  
                      u5331 046A                        u5315 0425                        u5251 027D  
                      u2940 1BDE                        u3740 17ED                        u3660 1797  
                      u3580 175A                        u4620 1381                        u4460 12AA  
                      u3820 0CFE                        u5500 07EE                        u5420 0659  
                      u5340 047A                        u5260 02AD                        u2941 1BDD  
                      u3741 17EC                        u3661 1796                        u3581 1759  
                      u5085 11C5                        u4621 1380                        u4605 136A  
                      u4461 12A9                        u2925 1C59                        u3901 0E1B  
                      u3821 0CFD                        u4365 0BFD                        u4285 0A52  
                      u5501 07ED                        u5421 0658                        u5405 05CE  
                      u5341 0479                        u5261 02AC                        u2950 1BE9  
                      u5190 1DE5                        u5510 13AC                        u3750 17FE  
                      u3670 179D                        u4710 1ED9                        u4550 133F  
                      u4390 1233                        u3902 0E22                        u3830 0D03  
                      u5430 0668                        u5350 0495                        u5270 02E7  
                      u2951 1BE8                        u5191 1DE4                        u5511 13AB  
                      u3751 17FD                        u3671 179C                        u4711 1ED8  
                      u4551 133E                        u4391 1232                        u3903 0E29  
                      u3831 0D02                        u4375 0C39                        u4295 0A8E  
                      u5431 0667                        u5351 0494                        u5271 02E6  
                      u2960 1BF0                        u5520 13B2                        u4800 10F2  
                      u3680 17AF                        u4640 1392                        u4480 12BC  
                      u3760 0CB0                        u5440 0683                        u5280 0322  
                      u2961 1BEF                        u5185 1DC4                        u5521 13B1  
                      u4801 10F1                        u3681 17AE                        u4705 1ECA  
                      u4641 1391                        u4545 1326                        u4481 12BB  
                      u3921 0E51                        u3841 0D54                        u3761 0CAF  
                      u4385 0C75                        u5441 0682                        u5425 0655  
                      u5345 0476                        u5281 0321                        u2970 1BF7  
                      u5530 13B7                        u4810 10FE                        u3690 17BE  
                      u4730 1EF4                        u4650 1C25                        u4570 135D  
                      u4490 12C3                        u3922 0E58                        u3842 0D5B  
                      u3770 0CB6                        u5370 05A8                        u5290 03AB  
                      u2971 1BF6                        u5531 13B6                        u4811 10FD  
                      u3595 1765                        u4731 1EF3                        u4651 1C24  
                      u4635 1384                        u4571 135C                        u4555 133B  
                      u4491 12C2                        u4475 12AC                        u3931 0E7E  
                      u3923 0E5F                        u3915 0E2B                        u3851 0D70  
                      u3843 0D62                        u3771 0CB5                        u5435 0664  
                      u5371 05A7                        u5291 03AA                        u5700 14CD  
                      u5620 146D                        u5540 13D9                        u4900 1FC5  
                      u4580 1361                        u3932 0E85                        u3852 0D77  
                      u3780 0CBB                        u2980 1F22                        u5380 05B3  
                      u5701 14CC                        u5621 146C                        u5605 1459  
                      u5541 13D8                        u4821 110D                        u4901 1FC4  
                      u4725 1EDB                        u4581 1360                        u4565 1350  
                      u3941 0EAB                        u3933 0E8C                        u3861 0D9C  
                      u3853 0D7E                        u3781 0CBA                        u2981 1F21  
                      u5381 05B2                        u5365 0575                        u5710 14D2  
                      u5550 13DF                        u4830 1126                        u4822 110E  
                      u4750 1F12                        u4590 1368                        u3950 0ED5  
                      u3942 0EB2                        u3862 0DA3                        u3790 0CDC  
                      u2990 1F2D                        u5470 07AF                        u5390 05BF  
                      u5711 14D1                        u5615 1462                        u5551 13DE  
                      u4831 1125                        u4823 1113                        u3695 17B9  
                      u4751 1F11                        u4735 1EF0                        u4591 1367  
                      u3943 0EB9                        u3871 0DB8                        u3863 0DAA  
                      u3791 0CDB                        u2991 1F2C                        u5471 07AE  
                      u5455 070A                        u5391 05BE                        u5375 05A4  
                      u5720 14E6                        u5640 1489                        u5560 13E4  
                      u4760 1D7C                        u4824 1114                        u4920 1FD7  
                      u4680 1C3F                        u3872 0DBF                        u5480 07C7  
                      u5800 0824                        u5721 14E5                        u5641 1488  
                      u5561 13E3                        u4761 1D7B                        u4841 1135  
                      u4825 1119                        u4921 1FD6                        u4745 1F04  
                      u4681 1C3E                        u4665 1C2C                        u3961 0EE1  
                      u3873 0DC6                        u5481 07C6                        u5465 0770  
                      u5801 0823                        u5730 14ED                        u5650 14A2  
                      u5570 13FF                        u4770 1D98                        u4850 1160  
                      u4842 1136                        u4826 111A                        u4930 1FDE  
                      u4690 1EC5                        u3970 0EFD                        u3962 0EE8  
                      u5490 07D4                        u5731 14EC                        u5651 14A1  
                      u5635 1470                        u5571 13FE                        u4771 1D97  
                      u4851 115F                        u4843 113B                        u4931 1FDD  
                      u4915 1FC7                        u4691 1EC4                        u4675 1C33  
                      u3963 0EEF                        u3955 0ED0                        u3891 0DEE  
                      u5491 07D3                        u5740 14F3                        u5660 14AA  
                      u5580 141D                        u4780 1DB2                        u4844 113C  
                      u4860 1BA1                        u3892 0DF5                        u5741 14F2  
                      u5661 14A9                        u5645 1485                        u5581 141C  
                      u4781 1DB1                        u4845 1141                        u4861 1BA0  
                      u3981 0F09                        u3893 0DFC                        u3885 0DC8  
                      u5750 1505                        u5590 1457                        u4846 1142  
                      u4790 10D6                        u4950 1FEF                        u4870 1F91  
                      u3982 0F10                        u5751 1504                        u5591 1456  
                      u4855 115C                        u4791 10D5                        u4951 1FEE  
                      u4871 1F90                        u3983 0F17                        u3975 0EF8  
                      u5760 1514                        u5680 14B9                        u4960 1FF4  
                      u4880 1FA8                        u5681 14B8                        u4785 1DAE  
                      u4961 1FF3                        u4945 1FE1                        u5817 0818  
                      u5770 1531                        u4890 1FBE                        u4970 1E10  
                      u5771 1530                        u5675 14AE                        u4891 1FBD  
                      u4971 1E0F                        u3995 0F19                        u5827 0938  
                      u5780 154E                        u5837 1BB5                        u5781 154D  
                      u5765 150F                        u4885 1FA3                        u5790 1565  
                      u4990 1E24                        u5791 1564                        u5775 152D  
                      u5695 14BC                        u4991 1E23                        u5785 154A  
                      u4985 1E15                __CFG_WRT$OFF 0000               __CFG_FCMEN$ON 0000  
                      _main 1BBE                        btemp 007E            __end_of_ADC_Init 0812  
          __end_of_ADC_Read 0940               __CFG_BOREN$ON 0000                        start 0000  
           ___fldiv@new_exp 0038          Lcd_Print_Char@data 0074             __end_of_Lcd_Cmd 1BBE  
             __CFG_MCLRE$ON 0000                  _Lcd_SetBit 1BD9               ___fltol@sign1 005A  
           __end_of___fladd 1800                       ?_main 0070             __end_of___fldiv 1578  
           __end_of___awdiv 1F84             __end_of___flneg 1BA4               __CFG_WDTE$OFF 0000  
           __end_of___awmod 1EB5             __end_of___flmul 1000             __end_of___flsub 1C1F  
           __end_of___fltol 2000                       _ANSEL 0188             __end_of___lldiv 1F1B  
           ___awdiv@divisor 0077             __end_of___llmod 1E5C             __end_of___lwdiv 1D68  
           __end_of___lwmod 1CA5             ___awdiv@counter 0020     __size_of_Lcd_Set_Cursor 0052  
                     _TRISA 0085                       _TRISD 0088             __end_of_dpowers 10A0  
                     _scale 0940                       pclath 000A   __size_of_Lcd_Print_String 0042  
                     status 0003                       wtemp0 007E             __end_of_sprintf 07F3  
   __size_of_Lcd_Print_Char 002B             __initialization 07F3                __end_of_main 1BD9  
                    ??_main 007E          __size_of_Lcd_Clear 000D        __size_of__tdiv_to_l_ 00BD  
        __size_of_Lcd_Start 003D                      _ADCON0 001F                      _ADCON1 009F  
          ___llmod@dividend 0074                      ?_scale 003E                      _ADRESH 001E  
                    _ADRESL 009E            ___awdiv@dividend 0079                   ??_Lcd_Cmd 0071  
          __end_of___xxtofl 1220              __CFG_PWRTE$OFF 0000            __end_of__powers_ 1044  
                    ___flge 10C2                      ___fleq 1D68                   ??___fladd 005A  
                    ___wmul 1C1F                   ??___fldiv 002E                   ??___awdiv 007B  
                 ??___flneg 0074                   ??___awmod 0074                   ??___flmul 002C  
                 ??___flsub 007E                   ??___fltol 0055                   ??___lldiv 0078  
                 ??___llmod 0078                   ??___lwdiv 007A                   ??___lwmod 0074  
               ?_Lcd_SetBit 0070                      _fround 002E            ___awdiv@quotient 0022  
           ___awmod@divisor 0070             ___awmod@counter 0075          __size_of__Umul8_16 0027  
                 ?_ADC_Init 0070                   ?_ADC_Read 0070                   ??_sprintf 00A5  
           Lcd_Set_Cursor@y 0079             Lcd_Set_Cursor@z 0078                  ___flge@ff1 0070  
                ___flge@ff2 0074                ___xxtofl@arg 0022                ___xxtofl@exp 0021  
              ___xxtofl@val 0076                  ___fleq@ff1 0070                  ___fleq@ff2 0074  
   __end_of__initialization 07FC                  ___flneg@f1 0070           __end_of_Lcd_Clear 10C2  
                ___fltol@f1 0051           __end_of_Lcd_Start 1CE2              __pcstackCOMMON 0070  
             __end_of_scale 0C9F              _Lcd_Set_Cursor 1DB6                  __div_to_l_ 12DD  
                ??_ADC_Init 0070                  ??_ADC_Read 00C3          _scaled_temperature 00C6  
           __div_to_l_@exp1 0025             __div_to_l_@cntr 0024                     ??_scale 0042  
           __div_to_l_@quot 0020                  __pbssBANK1 00C6            _Lcd_Print_String 1CE2  
       __size_of_Lcd_SetBit 0022               __div_to_l_@f1 0070               __div_to_l_@f2 0074  
            _Lcd_Print_Char 0003           __end_of__Umul8_16 1C6B                  __pmaintext 1BBE  
                   ?___flge 0070                     ?___fleq 0070                     ?___wmul 0070  
                   ?_fround 003E          Lcd_SetBit@data_bit 0070      __end_of_Lcd_Set_Cursor 1E08  
                 ?___xxtofl 0076                  __stringtab 1000                     _Lcd_Cmd 1BA4  
    __end_of_Lcd_Print_Char 002E           __end_of__npowers_ 1078             __size_of___flge 00A2  
           __size_of___fleq 004E                     ___fladd 1578                     ___fldiv 139B  
                   ___awdiv 1F1B                     ___flneg 1B99                     ___awmod 1E5C  
                   ___flmul 0C9F                     ___flsub 1BFB                     ___fltol 1F84  
                   ___lldiv 1EB5             __size_of___wmul 0025                     ___llmod 1E08  
                   ___lwdiv 1D24                  _fround$777 004D                  _fround$778 0049  
                   ___lwmod 1C6B             __size_of_fround 020B             ?_Lcd_Set_Cursor 0074  
                   __ptext1 1CA5                     __ptext2 0812                     __ptext3 0239  
                   __ptext4 0940                     __ptext5 1E5C                     __ptext6 1F1B  
                   __ptext7 002E                     __ptext8 1C6B                     __ptext9 1D24  
               ?__div_to_l_ 0070                     _dpowers 1078                  ??___xxtofl 007A  
          ___awmod@dividend 0072                     _sprintf 0239                     clrloop0 1B92  
      end_of_initialization 07FC             ?_Lcd_Print_Char 0070             ___lldiv@divisor 0070  
           ___lldiv@counter 007D              __tdiv_to_l_@f1 0070              __tdiv_to_l_@f2 0074  
              ??_Lcd_SetBit 0070               ??__tdiv_to_l_ 0078                 ___fladd@grs 0065  
             ___xxtofl@sign 0020                 ___fldiv@grs 003A                 ___fldiv@rem 0033  
         __size_of_ADC_Init 0011           __size_of_ADC_Read 012E                 ___flmul@grs 0032  
        __end_of_Lcd_SetBit 1BFB         __size_of__div_to_l_ 00BE                   _Lcd_Clear 10B5  
                 _Lcd_Start 1CA5              __end_of___flge 1164              __end_of___fleq 1DB6  
            __end_of___wmul 1C44    __end_of_Lcd_Print_String 1D24           _scaled_float_data 00CA  
            __end_of_fround 0239         start_initialization 07F3         __end_of__tdiv_to_l_ 12DD  
           ___llmod@divisor 0070           Lcd_Print_String@a 0075           Lcd_Print_String@i 007A  
           ___llmod@counter 0079                  ?_Lcd_Clear 0070                    ??___flge 0078  
                  ??___fleq 0078                    ??___wmul 0074                  ?_Lcd_Start 0070  
                 __Umul8_16 1C44                    ??_fround 0042  Lcd_Print_Char@Lower_Nibble 0072  
             sprintf@tmpval 00B9                   ___fladd@a 0056                   ___fladd@b 0052  
                fround@prec 0051                   ___fldiv@a 0026                   ___fldiv@b 002A  
                 ___flmul@a 0028                   ___flmul@b 0024                   ___flsub@a 0066  
                 ___flsub@b 006A                   ___latbits 0002               __pcstackBANK0 0020  
             __pcstackBANK1 00A0           __size_of___xxtofl 00BC                    ?_Lcd_Cmd 0070  
               sprintf@flag 00AF                 sprintf@eexp 00B7                 sprintf@fval 00BE  
               sprintf@prec 00B1                   _char_data 00D0            ___lwdiv@dividend 0078  
          ??_Lcd_Set_Cursor 0075                    ?___fladd 0052                    ?___fldiv 0026  
                  ?___awdiv 0077                    ?___flneg 0070                    ?___awmod 0070  
                  ?___flmul 0024                    ?___flsub 0066                    ?___fltol 0051  
                  ?___lldiv 0070                    ?___llmod 0070                   __npowers_ 1044  
                ?__Umul8_16 0070                    ?___lwdiv 0076                    ?___lwmod 0070  
    __CFG_FOSC$EXTRC_CLKOUT 0000                   __pstrings 1000                 __tdiv_to_l_ 1220  
              ??__div_to_l_ 0078                    _ADC_Init 0801                    _ADC_Read 0812  
                 _scale$779 004C            ??_Lcd_Print_Char 0071            ___lwdiv@quotient 007B  
                  ?_sprintf 00A0              __size_of_scale 035F              ___wmul@product 0074  
                 clear_ram0 1B91                    Lcd_Cmd@a 0073          __end_of__div_to_l_ 139B  
                  _GO_nDONE 00F9                 ??_Lcd_Clear 0074                 ??_Lcd_Start 0074  
               __stringbase 100F           ___wmul@multiplier 0070        Lcd_Set_Cursor@column 0074  
          __size_of_Lcd_Cmd 001A                 ??__Umul8_16 0072            __size_of___fladd 0288  
          __size_of___fldiv 01DD            __size_of___awdiv 0069            __size_of___flneg 000B  
          __size_of___awmod 0059            __size_of___flmul 0361            __size_of___flsub 0024  
          __size_of___fltol 007C            __size_of___lldiv 0066            __size_of___llmod 0054  
          __size_of___lwdiv 0044            __size_of___lwmod 003A          __end_of__stringtab 1010  
         ?_Lcd_Print_String 0075                  sprintf@val 00B3                    ___xxtofl 1164  
        ??_Lcd_Print_String 0077             ___lwdiv@divisor 0076             ___lwdiv@counter 007D  
                  __ptext10 0C9F                    __ptext11 1C44                    __ptext20 1578  
                  __ptext12 1220                    __ptext21 1B99                    __ptext13 12DD  
                  __ptext30 1BD9                    __ptext22 10C2                    __ptext14 1164  
                  __ptext31 0801                    __ptext23 1D68                    __ptext15 1C1F  
                  __ptext24 139B                    __ptext16 1E08                    __ptext25 1DB6  
                  __ptext17 1EB5                    __ptext26 1CE2                    __ptext18 1F84  
                  __ptext27 0003                    __ptext19 1BFB                    __ptext28 10B5  
                  __ptext29 1BA4           __CFG_BOR4V$BOR40V 0000                    __powers_ 1010  
          __size_of_sprintf 05BA               __size_of_main 001B                    _int_data 00CE  
Lcd_Print_Char@Upper_Nibble 0073                    scale@scl 0050                   sprintf@ap 00AE  
          __tdiv_to_l_@exp1 0025            __tdiv_to_l_@cntr 0024                   sprintf@sp 00BD  
          __tdiv_to_l_@quot 0020            ___lwmod@dividend 0072            ___lldiv@dividend 0074  
                 stringcode 100A          Lcd_Set_Cursor@temp 007A                ?__tdiv_to_l_ 0070  
    __Umul8_16@multiplicand 0070                    sprintf@c 00C2                    sprintf@f 00A0  
          ___lldiv@quotient 0079             ___lwmod@divisor 0070             ___lwmod@counter 0075  
                  stringdir 100A                    stringtab 1000           Lcd_Set_Cursor@row 0077  
             ___fladd@signs 0062                ___fladd@aexp 0063                ___fladd@bexp 0064  
      __Umul8_16@multiplier 0078           __Umul8_16@product 0074  
